0000000000400807 <main>:
  400807:	55                   	push   rbp
  400808:	48 89 e5             	mov    rbp,rsp
  40080b:	48 81 ec c0 00 00 00 	sub    rsp,0xc0
  400812:	89 bd 4c ff ff ff    	mov    DWORD PTR [rbp-0xb4],edi
  400818:	48 89 b5 40 ff ff ff 	mov    QWORD PTR [rbp-0xc0],rsi
  40081f:	64 48 8b 04 25 28 00 	mov    rax,QWORD PTR fs:0x28
  400826:	00 00 
  400828:	48 89 45 f8          	mov    QWORD PTR [rbp-0x8],rax
  40082c:	31 c0                	xor    eax,eax
  40082e:	48 8b 05 43 08 20 00 	mov    rax,QWORD PTR [rip+0x200843]        # 601078 <stdout@@GLIBC_2.2.5>
  400835:	be 00 00 00 00       	mov    esi,0x0
  40083a:	48 89 c7             	mov    rdi,rax
  40083d:	e8 6e fe ff ff       	call   4006b0 <setbuf@plt>
  400842:	48 8d 35 bf 02 00 00 	lea    rsi,[rip+0x2bf]        # 400b08 <_IO_stdin_used+0x8>
  400849:	48 8d 3d ba 02 00 00 	lea    rdi,[rip+0x2ba]        # 400b0a <_IO_stdin_used+0xa>
  400850:	e8 9b fe ff ff       	call   4006f0 <fopen@plt>     # fd = fopen("flag.txt", "r", 0x0)
  400855:	48 89 85 78 ff ff ff 	mov    QWORD PTR [rbp-0x88],rax
  40085c:	48 8b 95 78 ff ff ff 	mov    rdx,QWORD PTR [rbp-0x88]
  400863:	48 8d 45 b0          	lea    rax,[rbp-0x50]
  400867:	be 40 00 00 00       	mov    esi,0x40
  40086c:	48 89 c7             	mov    rdi,rax
  40086f:	e8 5c fe ff ff       	call   4006d0 <fgets@plt>     # flag = fgets([rbp-0x50], 0x40, fd)
  400874:	48 b8 74 68 69 73 20 	movabs rax,0x2073692073696874 # "this is "
  40087b:	69 73 20 
  40087e:	48 ba 61 20 72 61 6e 	movabs rdx,0x6d6f646e61722061 # "a random"
  400885:	64 6f 6d 
  400888:	48 89 45 90          	mov    QWORD PTR [rbp-0x70],rax
  40088c:	48 89 55 98          	mov    QWORD PTR [rbp-0x68],rdx
  400890:	48 b8 20 73 74 72 69 	movabs rax,0x2e676e6972747320 # "string."
  400897:	6e 67 2e 
  40089a:	48 89 45 a0          	mov    QWORD PTR [rbp-0x60],rax
  40089e:	c6 45 a8 00          	mov    BYTE PTR [rbp-0x58],0x0
  4008a2:	48 c7 85 68 ff ff ff 	mov    QWORD PTR [rbp-0x98],0x0
  4008a9:	00 00 00 00 
  4008ad:	c7 85 64 ff ff ff 00 	mov    DWORD PTR [rbp-0x9c],0x0
  4008b4:	00 00 00 
  4008b7:	eb 7a                	jmp    400933 <main+0x12c>
  4008b9:	bf 80 00 00 00       	mov    edi,0x80
  4008be:	e8 1d fe ff ff       	call   4006e0 <malloc@plt>  # malloc(0x80)
  4008c3:	48 89 85 70 ff ff ff 	mov    QWORD PTR [rbp-0x90],rax
  4008ca:	48 83 bd 68 ff ff ff 	cmp    QWORD PTR [rbp-0x98],0x0
  4008d1:	00 
  4008d2:	75 0e                	jne    4008e2 <main+0xdb>
  4008d4:	48 8b 85 70 ff ff ff 	mov    rax,QWORD PTR [rbp-0x90]
  4008db:	48 89 85 68 ff ff ff 	mov    QWORD PTR [rbp-0x98],rax
  4008e2:	48 8b 85 70 ff ff ff 	mov    rax,QWORD PTR [rbp-0x90]
  4008e9:	48 be 43 6f 6e 67 72 	movabs rsi,0x73746172676e6f43 # "Congrats"
  4008f0:	61 74 73 
  4008f3:	48 bf 21 20 59 6f 75 	movabs rdi,0x662072756f592021 # "! Your f"
  4008fa:	72 20 66 
  4008fd:	48 89 30             	mov    QWORD PTR [rax],rsi
  400900:	48 89 78 08          	mov    QWORD PTR [rax+0x8],rdi
  400904:	48 b9 6c 61 67 20 69 	movabs rcx,0x203a73692067616c # "lag is: "
  40090b:	73 3a 20 
  40090e:	48 89 48 10          	mov    QWORD PTR [rax+0x10],rcx
  400912:	c6 40 18 00          	mov    BYTE PTR [rax+0x18],0x0
  400916:	48 8d 55 b0          	lea    rdx,[rbp-0x50]
  40091a:	48 8b 85 70 ff ff ff 	mov    rax,QWORD PTR [rbp-0x90]
  400921:	48 89 d6             	mov    rsi,rdx
  400924:	48 89 c7             	mov    rdi,rax
  400927:	e8 e4 fd ff ff       	call   400710 <strcat@plt>
  40092c:	83 85 64 ff ff ff 01 	add    DWORD PTR [rbp-0x9c],0x1
  400933:	83 bd 64 ff ff ff 06 	cmp    DWORD PTR [rbp-0x9c],0x6
  40093a:	0f 8e 79 ff ff ff    	jle    4008b9 <main+0xb2>
  400940:	bf 80 00 00 00       	mov    edi,0x80
  400945:	e8 96 fd ff ff       	call   4006e0 <malloc@plt>
  40094a:	48 89 45 80          	mov    QWORD PTR [rbp-0x80],rax
  40094e:	48 8b 45 80          	mov    rax,QWORD PTR [rbp-0x80]
  400952:	48 be 53 6f 72 72 79 	movabs rsi,0x5420217972726f53 # "Sorry! T"
  400959:	21 20 54 
  40095c:	48 bf 68 69 73 20 77 	movabs rdi,0x276e6f7720736968 # "his won'"
  400963:	6f 6e 27 
  400966:	48 89 30             	mov    QWORD PTR [rax],rsi
  400969:	48 89 78 08          	mov    QWORD PTR [rax+0x8],rdi
  40096d:	48 b9 74 20 68 65 6c 	movabs rcx,0x7920706c65682074 # "t help y"
  400974:	70 20 79 
  400977:	48 89 48 10          	mov    QWORD PTR [rax+0x10],rcx
  40097b:	c7 40 18 6f 75 3a 20 	mov    DWORD PTR [rax+0x18],0x203a756f  # "ou:"
  400982:	c6 40 1c 00          	mov    BYTE PTR [rax+0x1c],0x0
  400986:	48 8d 55 90          	lea    rdx,[rbp-0x70]
  40098a:	48 8b 45 80          	mov    rax,QWORD PTR [rbp-0x80]
  40098e:	48 89 d6             	mov    rsi,rdx
  400991:	48 89 c7             	mov    rdi,rax
  400994:	e8 77 fd ff ff       	call   400710 <strcat@plt>
  400999:	48 8b 85 70 ff ff ff 	mov    rax,QWORD PTR [rbp-0x90]
  4009a0:	48 89 c7             	mov    rdi,rax
  4009a3:	e8 d8 fc ff ff       	call   400680 <free@plt>
  4009a8:	48 8b 45 80          	mov    rax,QWORD PTR [rbp-0x80]
  4009ac:	48 89 c7             	mov    rdi,rax
  4009af:	e8 cc fc ff ff       	call   400680 <free@plt>
  4009b4:	c7 85 60 ff ff ff 00 	mov    DWORD PTR [rbp-0xa0],0x0
  4009bb:	00 00 00 
  4009be:	c6 85 5f ff ff ff 00 	mov    BYTE PTR [rbp-0xa1],0x0
  4009c5:	48 8d 3d 4c 01 00 00 	lea    rdi,[rip+0x14c]        # 400b18 <_IO_stdin_used+0x18>
  4009cc:	e8 bf fc ff ff       	call   400690 <puts@plt>      # "You may edit one byte in the program"
  4009d1:	48 8d 3d 66 01 00 00 	lea    rdi,[rip+0x166]        # 400b3e <_IO_stdin_used+0x3e>
  4009d8:	b8 00 00 00 00       	mov    eax,0x0
  4009dd:	e8 de fc ff ff       	call   4006c0 <printf@plt>    # printf("Address: ")
  4009e2:	48 8d 85 60 ff ff ff 	lea    rax,[rbp-0xa0]
  4009e9:	48 89 c6             	mov    rsi,rax
  4009ec:	48 8d 3d 55 01 00 00 	lea    rdi,[rip+0x155]        # 400b48 <_IO_stdin_used+0x48>
  4009f3:	b8 00 00 00 00       	mov    eax,0x0
  4009f8:	e8 03 fd ff ff       	call   400700 <__isoc99_scanf@plt>  # scanf("%d")
  4009fd:	48 8d 3d 47 01 00 00 	lea    rdi,[rip+0x147]        # 400b4b <_IO_stdin_used+0x4b>
  400a04:	b8 00 00 00 00       	mov    eax,0x0
  400a09:	e8 b2 fc ff ff       	call   4006c0 <printf@plt>  # printf("Value: ")
  400a0e:	48 8d 85 5f ff ff ff 	lea    rax,[rbp-0xa1]
  400a15:	48 89 c6             	mov    rsi,rax
  400a18:	48 8d 3d 34 01 00 00 	lea    rdi,        # 400b53 <_IO_stdin_used+0x53>
  400a1f:	b8 00 00 00 00       	mov    eax,0x0
  400a24:	e8 d7 fc ff ff       	call   400700 <__isoc99_scanf@plt>  # scanf("%c")
  400a29:	8b 85 60 ff ff ff    	mov    eax,DWORD PTR [rbp-0xa0]
  400a2f:	48 63 d0             	movsxd rdx,eax
  400a32:	48 8b 85 68 ff ff ff 	mov    rax,QWORD PTR [rbp-0x98] # rax = "Congrats! Your flag is: picoCTF{...}"
  400a39:	48 01 c2             	add    rdx,rax
  400a3c:	0f b6 85 5f ff ff ff 	movzx  eax,BYTE PTR [rbp-0xa1]
  400a43:	88 02                	mov    BYTE PTR [rdx],al
  400a45:	bf 80 00 00 00       	mov    edi,0x80
  400a4a:	e8 91 fc ff ff       	call   4006e0 <malloc@plt>
  400a4f:	48 89 45 88          	mov    QWORD PTR [rbp-0x78],rax
  400a53:	48 8b 45 88          	mov    rax,QWORD PTR [rbp-0x78]
  400a57:	48 83 c0 10          	add    rax,0x10
  400a5b:	48 89 c7             	mov    rdi,rax
  400a5e:	e8 2d fc ff ff       	call   400690 <puts@plt>
  400a63:	b8 00 00 00 00       	mov    eax,0x0
  400a68:	48 8b 4d f8          	mov    rcx,QWORD PTR [rbp-0x8]
  400a6c:	64 48 33 0c 25 28 00 	xor    rcx,QWORD PTR fs:0x28
  400a73:	00 00 
  400a75:	74 05                	je     400a7c <main+0x275>
  400a77:	e8 24 fc ff ff       	call   4006a0 <__stack_chk_fail@plt>
  400a7c:	c9                   	leave  
  400a7d:	c3                   	ret    
  400a7e:	66 90                	xchg   ax,ax
