
fun:	file format elf32-i386

Disassembly of section .interp:

08048154 <.interp>:
 8048154: 2f                           	das
 8048155: 6c                           	insb	byte ptr es:[edi], dx
 8048156: 69 62 2f 6c 64 2d 6c         	imul	esp, dword ptr [edx + 47], 1814914156
 804815d: 69 6e 75 78 2e 73 6f         	imul	ebp, dword ptr [esi + 117], 1869819512
 8048164: 2e 32 00                     	xor	al, byte ptr cs:[eax]

Disassembly of section .note.ABI-tag:

08048168 <.note.ABI-tag>:
 8048168: 04 00                        	add	al, 0
 804816a: 00 00                        	add	byte ptr [eax], al
 804816c: 10 00                        	adc	byte ptr [eax], al
 804816e: 00 00                        	add	byte ptr [eax], al
 8048170: 01 00                        	add	dword ptr [eax], eax
 8048172: 00 00                        	add	byte ptr [eax], al
 8048174: 47                           	inc	edi
 8048175: 4e                           	dec	esi
 8048176: 55                           	push	ebp
 8048177: 00 00                        	add	byte ptr [eax], al
 8048179: 00 00                        	add	byte ptr [eax], al
 804817b: 00 03                        	add	byte ptr [ebx], al
 804817d: 00 00                        	add	byte ptr [eax], al
 804817f: 00 02                        	add	byte ptr [edx], al
 8048181: 00 00                        	add	byte ptr [eax], al
 8048183: 00 00                        	add	byte ptr [eax], al
 8048185: 00 00                        	add	byte ptr [eax], al
 8048187: 00                           	<unknown>

Disassembly of section .note.gnu.build-id:

08048188 <.note.gnu.build-id>:
 8048188: 04 00                        	add	al, 0
 804818a: 00 00                        	add	byte ptr [eax], al
 804818c: 14 00                        	adc	al, 0
 804818e: 00 00                        	add	byte ptr [eax], al
 8048190: 03 00                        	add	eax, dword ptr [eax]
 8048192: 00 00                        	add	byte ptr [eax], al
 8048194: 47                           	inc	edi
 8048195: 4e                           	dec	esi
 8048196: 55                           	push	ebp
 8048197: 00 32                        	add	byte ptr [edx], dh
 8048199: 5e                           	pop	esi
 804819a: 35 37 89 82 f4               	xor	eax, 4102195511
 804819f: 51                           	push	ecx
 80481a0: f3 74 c7                     	rep		je	0x804816a <.note.ABI-tag+0x2>
 80481a3: 14 0c                        	adc	al, 12
 80481a5: 52                           	push	edx
 80481a6: 49                           	dec	ecx
 80481a7: bb 1c 52 ab 18               	mov	ebx, 413880860

Disassembly of section .gnu.hash:

080481ac <.gnu.hash>:
 80481ac: 02 00                        	add	al, byte ptr [eax]
 80481ae: 00 00                        	add	byte ptr [eax], al
 80481b0: 09 00                        	or	dword ptr [eax], eax
 80481b2: 00 00                        	add	byte ptr [eax], al
 80481b4: 01 00                        	add	dword ptr [eax], eax
 80481b6: 00 00                        	add	byte ptr [eax], al
 80481b8: 05 00 00 00 00               	add	eax, 0
 80481bd: 20 00                        	and	byte ptr [eax], al
 80481bf: 20 00                        	and	byte ptr [eax], al
 80481c1: 00 00                        	add	byte ptr [eax], al
 80481c3: 00 09                        	add	byte ptr [ecx], cl
 80481c5: 00 00                        	add	byte ptr [eax], al
 80481c7: 00 ad                        	<unknown>
 80481c9: 4b                           	dec	ebx
 80481ca: e3 c0                        	jecxz	0x804818c <.note.gnu.build-id+0x4>

Disassembly of section .dynsym:

080481cc <.dynsym>:
		...
 80481dc: 37                           	aaa
		...
 80481e5: 00 00                        	add	byte ptr [eax], al
 80481e7: 00 12                        	add	byte ptr [edx], dl
 80481e9: 00 00                        	add	byte ptr [eax], al
 80481eb: 00 1f                        	add	byte ptr [edi], bl
		...
 80481f5: 00 00                        	add	byte ptr [eax], al
 80481f7: 00 12                        	add	byte ptr [edx], dl
 80481f9: 00 00                        	add	byte ptr [eax], al
 80481fb: 00 5a 00                     	add	byte ptr [edx], bl
		...
 8048206: 00 00                        	add	byte ptr [eax], al
 8048208: 20 00                        	and	byte ptr [eax], al
 804820a: 00 00                        	add	byte ptr [eax], al
 804820c: 1a 00                        	sbb	al, byte ptr [eax]
		...
 8048216: 00 00                        	add	byte ptr [eax], al
 8048218: 12 00                        	adc	al, byte ptr [eax]
 804821a: 00 00                        	add	byte ptr [eax], al
 804821c: 3e 00 00                     	add	byte ptr ds:[eax], al
		...
 8048227: 00 12                        	add	byte ptr [edx], dl
 8048229: 00 00                        	add	byte ptr [eax], al
 804822b: 00 24 00                     	add	byte ptr [eax + eax], ah
		...
 8048236: 00 00                        	add	byte ptr [eax], al
 8048238: 11 00                        	adc	dword ptr [eax], eax
 804823a: 00 00                        	add	byte ptr [eax], al
 804823c: 2a 00                        	sub	al, byte ptr [eax]
		...
 8048246: 00 00                        	add	byte ptr [eax], al
 8048248: 12 00                        	adc	al, byte ptr [eax]
 804824a: 00 00                        	add	byte ptr [eax], al
 804824c: 30 00                        	xor	byte ptr [eax], al
		...
 8048256: 00 00                        	add	byte ptr [eax], al
 8048258: 11 00                        	adc	dword ptr [eax], eax
 804825a: 00 00                        	add	byte ptr [eax], al
 804825c: 0b 00                        	or	eax, dword ptr [eax]
 804825e: 00 00                        	add	byte ptr [eax], al
 8048260: 3c 87                        	cmp	al, -121
 8048262: 04 08                        	add	al, 8
 8048264: 04 00                        	add	al, 0
 8048266: 00 00                        	add	byte ptr [eax], al
 8048268: 11 00                        	adc	dword ptr [eax], eax
 804826a: 10 00                        	adc	byte ptr [eax], al

Disassembly of section .dynstr:

0804826c <.dynstr>:
 804826c: 00 6c 69 62                  	add	byte ptr [ecx + 2*ebp + 98], ch
 8048270: 63 2e                        	arpl	word ptr [esi], bp
 8048272: 73 6f                        	jae	0x80482e3 <stdout@@GLIBC_2.0+0x80482e3>
 8048274: 2e 36 00 5f 49               	add	byte ptr ss:[edi + 73], bl
 8048279: 4f                           	dec	edi
 804827a: 5f                           	pop	edi
 804827b: 73 74                        	jae	0x80482f1 <stdout@@GLIBC_2.0+0x80482f1>
 804827d: 64 69 6e 5f 75 73 65 64      	imul	ebp, dword ptr fs:[esi + 95], 1684370293
 8048285: 00 65 78                     	add	byte ptr [ebp + 120], ah
 8048288: 69 74 00 70 75 74 73 00      	imul	esi, dword ptr [eax + eax + 112], 7566453
 8048290: 73 74                        	jae	0x8048306 <stdout@@GLIBC_2.0+0x8048306>
 8048292: 64 69 6e 00 66 67 65 74      	imul	ebp, dword ptr fs:[esi], 1952802662
 804829a: 63 00                        	arpl	word ptr [eax], ax
 804829c: 73 74                        	jae	0x8048312 <stdout@@GLIBC_2.0+0x8048312>
 804829e: 64 6f                        	outsd	dx, dword ptr fs:[esi]
 80482a0: 75 74                        	jne	0x8048316 <stdout@@GLIBC_2.0+0x8048316>
 80482a2: 00 73 65                     	add	byte ptr [ebx + 101], dh
 80482a5: 74 62                        	je	0x8048309 <stdout@@GLIBC_2.0+0x8048309>
 80482a7: 75 66                        	jne	0x804830f <stdout@@GLIBC_2.0+0x804830f>
 80482a9: 00 5f 5f                     	add	byte ptr [edi + 95], bl
 80482ac: 6c                           	insb	byte ptr es:[edi], dx
 80482ad: 69 62 63 5f 73 74 61         	imul	esp, dword ptr [edx + 99], 1635021663
 80482b4: 72 74                        	jb	0x804832a <stdout@@GLIBC_2.0+0x804832a>
 80482b6: 5f                           	pop	edi
 80482b7: 6d                           	insd	dword ptr es:[edi], dx
 80482b8: 61                           	popal
 80482b9: 69 6e 00 47 4c 49 42         	imul	ebp, dword ptr [esi], 1112099911
 80482c0: 43                           	inc	ebx
 80482c1: 5f                           	pop	edi
 80482c2: 32 2e                        	xor	ch, byte ptr [esi]
 80482c4: 30 00                        	xor	byte ptr [eax], al
 80482c6: 5f                           	pop	edi
 80482c7: 5f                           	pop	edi
 80482c8: 67 6d                        	insd	dword ptr es:[di], dx
 80482ca: 6f                           	outsd	dx, dword ptr [esi]
 80482cb: 6e                           	outsb	dx, byte ptr [esi]
 80482cc: 5f                           	pop	edi
 80482cd: 73 74                        	jae	0x8048343 <stdout@@GLIBC_2.0+0x8048343>
 80482cf: 61                           	popal
 80482d0: 72 74                        	jb	0x8048346 <stdout@@GLIBC_2.0+0x8048346>
 80482d2: 5f                           	pop	edi
 80482d3: 5f                           	pop	edi
 80482d4: 00                           	<unknown>

Disassembly of section .gnu.version:

080482d6 <.gnu.version>:
 80482d6: 00 00                        	add	byte ptr [eax], al
 80482d8: 02 00                        	add	al, byte ptr [eax]
 80482da: 02 00                        	add	al, byte ptr [eax]
 80482dc: 00 00                        	add	byte ptr [eax], al
 80482de: 02 00                        	add	al, byte ptr [eax]
 80482e0: 02 00                        	add	al, byte ptr [eax]
 80482e2: 02 00                        	add	al, byte ptr [eax]
 80482e4: 02 00                        	add	al, byte ptr [eax]
 80482e6: 02 00                        	add	al, byte ptr [eax]
 80482e8: 01 00                        	add	dword ptr [eax], eax

Disassembly of section .gnu.version_r:

080482ec <.gnu.version_r>:
 80482ec: 01 00                        	add	dword ptr [eax], eax
 80482ee: 01 00                        	add	dword ptr [eax], eax
 80482f0: 01 00                        	add	dword ptr [eax], eax
 80482f2: 00 00                        	add	byte ptr [eax], al
 80482f4: 10 00                        	adc	byte ptr [eax], al
 80482f6: 00 00                        	add	byte ptr [eax], al
 80482f8: 00 00                        	add	byte ptr [eax], al
 80482fa: 00 00                        	add	byte ptr [eax], al
 80482fc: 10 69 69                     	adc	byte ptr [ecx + 105], ch
 80482ff: 0d 00 00 02 00               	or	eax, 131072
 8048304: 50                           	push	eax
 8048305: 00 00                        	add	byte ptr [eax], al
 8048307: 00 00                        	add	byte ptr [eax], al
 8048309: 00 00                        	add	byte ptr [eax], al
 804830b: 00                           	<unknown>

Disassembly of section .rel.dyn:

0804830c <.rel.dyn>:
 804830c: f4                           	hlt
 804830d: 9f                           	lahf
 804830e: 04 08                        	add	al, 8
 8048310: 06                           	push	es
 8048311: 03 00                        	add	eax, dword ptr [eax]
 8048313: 00 f8                        	add	al, bh
 8048315: 9f                           	lahf
 8048316: 04 08                        	add	al, 8
 8048318: 06                           	push	es
 8048319: 06                           	push	es
 804831a: 00 00                        	add	byte ptr [eax], al
 804831c: fc                           	cld
 804831d: 9f                           	lahf
 804831e: 04 08                        	add	al, 8
 8048320: 06                           	push	es
 8048321: 08 00                        	or	byte ptr [eax], al
 8048323: 00                           	<unknown>

Disassembly of section .rel.plt:

08048324 <.rel.plt>:
 8048324: 0c a0                        	or	al, -96
 8048326: 04 08                        	add	al, 8
 8048328: 07                           	pop	es
 8048329: 01 00                        	add	dword ptr [eax], eax
 804832b: 00 10                        	add	byte ptr [eax], dl
 804832d: a0 04 08 07 02               	mov	al, byte ptr [34015236]
 8048332: 00 00                        	add	byte ptr [eax], al
 8048334: 14 a0                        	adc	al, -96
 8048336: 04 08                        	add	al, 8
 8048338: 07                           	pop	es
 8048339: 04 00                        	add	al, 0
 804833b: 00 18                        	add	byte ptr [eax], bl
 804833d: a0 04 08 07 05               	mov	al, byte ptr [84346884]
 8048342: 00 00                        	add	byte ptr [eax], al
 8048344: 1c a0                        	sbb	al, -96
 8048346: 04 08                        	add	al, 8
 8048348: 07                           	pop	es
 8048349: 07                           	pop	es
 804834a: 00 00                        	add	byte ptr [eax], al

Disassembly of section .init:

0804834c <_init>:
 804834c: 53                           	push	ebx
 804834d: 83 ec 08                     	sub	esp, 8
 8048350: e8 db 00 00 00               	call	0x8048430 <__x86.get_pc_thunk.bx>
 8048355: 81 c3 ab 1c 00 00            	add	ebx, 7339
 804835b: 8b 83 f4 ff ff ff            	mov	eax, dword ptr [ebx - 12]
 8048361: 85 c0                        	test	eax, eax
 8048363: 74 05                        	je	0x804836a <_init+0x1e>
 8048365: e8 66 00 00 00               	call	0x80483d0 <stdout@@GLIBC_2.0+0x80483d0>
 804836a: 83 c4 08                     	add	esp, 8
 804836d: 5b                           	pop	ebx
 804836e: c3                           	ret

Disassembly of section .plt:

08048370 <.plt>:
 8048370: ff 35 04 a0 04 08            	push	dword ptr [134520836]
 8048376: ff 25 08 a0 04 08            	jmp	dword ptr [134520840]
 804837c: 00 00                        	add	byte ptr [eax], al
 804837e: 00 00                        	add	byte ptr [eax], al

08048380 <setbuf@plt>:
 8048380: ff 25 0c a0 04 08            	jmp	dword ptr [134520844]
 8048386: 68 00 00 00 00               	push	0
 804838b: e9 e0 ff ff ff               	jmp	0x8048370 <.plt>

08048390 <puts@plt>:
 8048390: ff 25 10 a0 04 08            	jmp	dword ptr [134520848]
 8048396: 68 08 00 00 00               	push	8
 804839b: e9 d0 ff ff ff               	jmp	0x8048370 <.plt>

080483a0 <exit@plt>:
 80483a0: ff 25 14 a0 04 08            	jmp	dword ptr [134520852]
 80483a6: 68 10 00 00 00               	push	16
 80483ab: e9 c0 ff ff ff               	jmp	0x8048370 <.plt>

080483b0 <__libc_start_main@plt>:
 80483b0: ff 25 18 a0 04 08            	jmp	dword ptr [134520856]
 80483b6: 68 18 00 00 00               	push	24
 80483bb: e9 b0 ff ff ff               	jmp	0x8048370 <.plt>

080483c0 <fgetc@plt>:
 80483c0: ff 25 1c a0 04 08            	jmp	dword ptr [134520860]
 80483c6: 68 20 00 00 00               	push	32
 80483cb: e9 a0 ff ff ff               	jmp	0x8048370 <.plt>

Disassembly of section .plt.got:

080483d0 <.plt.got>:
 80483d0: ff 25 f4 9f 04 08            	jmp	dword ptr [134520820]
 80483d6: 66 90                        	nop

Disassembly of section .text:

080483e0 <_start>:
 80483e0: 31 ed                        	xor	ebp, ebp
 80483e2: 5e                           	pop	esi
 80483e3: 89 e1                        	mov	ecx, esp
 80483e5: 83 e4 f0                     	and	esp, -16
 80483e8: 50                           	push	eax
 80483e9: 54                           	push	esp
 80483ea: 52                           	push	edx
 80483eb: e8 23 00 00 00               	call	0x8048413 <_start+0x33>
 80483f0: 81 c3 10 1c 00 00            	add	ebx, 7184
 80483f6: 8d 83 20 e7 ff ff            	lea	eax, [ebx - 6368]
 80483fc: 50                           	push	eax
 80483fd: 8d 83 c0 e6 ff ff            	lea	eax, [ebx - 6464]
 8048403: 50                           	push	eax
 8048404: 51                           	push	ecx
 8048405: 56                           	push	esi
 8048406: c7 c0 d3 85 04 08            	mov	eax, 134514131
 804840c: 50                           	push	eax
 804840d: e8 9e ff ff ff               	call	0x80483b0 <__libc_start_main@plt>
 8048412: f4                           	hlt
 8048413: 8b 1c 24                     	mov	ebx, dword ptr [esp]
 8048416: c3                           	ret
 8048417: 66 90                        	nop
 8048419: 66 90                        	nop
 804841b: 66 90                        	nop
 804841d: 66 90                        	nop
 804841f: 90                           	nop

08048420 <_dl_relocate_static_pie>:
 8048420: f3 c3                        	rep		ret
 8048422: 66 90                        	nop
 8048424: 66 90                        	nop
 8048426: 66 90                        	nop
 8048428: 66 90                        	nop
 804842a: 66 90                        	nop
 804842c: 66 90                        	nop
 804842e: 66 90                        	nop

08048430 <__x86.get_pc_thunk.bx>:
 8048430: 8b 1c 24                     	mov	ebx, dword ptr [esp]
 8048433: c3                           	ret
 8048434: 66 90                        	nop
 8048436: 66 90                        	nop
 8048438: 66 90                        	nop
 804843a: 66 90                        	nop
 804843c: 66 90                        	nop
 804843e: 66 90                        	nop

08048440 <deregister_tm_clones>:
 8048440: b8 28 a0 04 08               	mov	eax, 134520872
 8048445: 3d 28 a0 04 08               	cmp	eax, 134520872
 804844a: 74 24                        	je	0x8048470 <deregister_tm_clones+0x30>
 804844c: b8 00 00 00 00               	mov	eax, 0
 8048451: 85 c0                        	test	eax, eax
 8048453: 74 1b                        	je	0x8048470 <deregister_tm_clones+0x30>
 8048455: 55                           	push	ebp
 8048456: 89 e5                        	mov	ebp, esp
 8048458: 83 ec 14                     	sub	esp, 20
 804845b: 68 28 a0 04 08               	push	134520872
 8048460: ff d0                        	call	eax
 8048462: 83 c4 10                     	add	esp, 16
 8048465: c9                           	leave
 8048466: c3                           	ret
 8048467: 89 f6                        	mov	esi, esi
 8048469: 8d bc 27 00 00 00 00         	lea	edi, [edi + eiz]
 8048470: f3 c3                        	rep		ret
 8048472: 8d b4 26 00 00 00 00         	lea	esi, [esi + eiz]
 8048479: 8d bc 27 00 00 00 00         	lea	edi, [edi + eiz]

08048480 <register_tm_clones>:
 8048480: b8 28 a0 04 08               	mov	eax, 134520872
 8048485: 2d 28 a0 04 08               	sub	eax, 134520872
 804848a: c1 f8 02                     	sar	eax, 2
 804848d: 89 c2                        	mov	edx, eax
 804848f: c1 ea 1f                     	shr	edx, 31
 8048492: 01 d0                        	add	eax, edx
 8048494: d1 f8                        	sar	eax
 8048496: 74 20                        	je	0x80484b8 <register_tm_clones+0x38>
 8048498: ba 00 00 00 00               	mov	edx, 0
 804849d: 85 d2                        	test	edx, edx
 804849f: 74 17                        	je	0x80484b8 <register_tm_clones+0x38>
 80484a1: 55                           	push	ebp
 80484a2: 89 e5                        	mov	ebp, esp
 80484a4: 83 ec 10                     	sub	esp, 16
 80484a7: 50                           	push	eax
 80484a8: 68 28 a0 04 08               	push	134520872
 80484ad: ff d2                        	call	edx
 80484af: 83 c4 10                     	add	esp, 16
 80484b2: c9                           	leave
 80484b3: c3                           	ret
 80484b4: 8d 74 26 00                  	lea	esi, [esi + eiz]
 80484b8: f3 c3                        	rep		ret
 80484ba: 8d b6 00 00 00 00            	lea	esi, [esi]

080484c0 <__do_global_dtors_aux>:
 80484c0: 80 3d 28 a0 04 08 00         	cmp	byte ptr [134520872], 0
 80484c7: 75 17                        	jne	0x80484e0 <__do_global_dtors_aux+0x20>
 80484c9: 55                           	push	ebp
 80484ca: 89 e5                        	mov	ebp, esp
 80484cc: 83 ec 08                     	sub	esp, 8
 80484cf: e8 6c ff ff ff               	call	0x8048440 <deregister_tm_clones>
 80484d4: c6 05 28 a0 04 08 01         	mov	byte ptr [134520872], 1
 80484db: c9                           	leave
 80484dc: c3                           	ret
 80484dd: 8d 76 00                     	lea	esi, [esi]
 80484e0: f3 c3                        	rep		ret
 80484e2: 8d b4 26 00 00 00 00         	lea	esi, [esi + eiz]
 80484e9: 8d bc 27 00 00 00 00         	lea	edi, [edi + eiz]

080484f0 <frame_dummy>:
 80484f0: 55                           	push	ebp
 80484f1: 89 e5                        	mov	ebp, esp
 80484f3: 5d                           	pop	ebp
 80484f4: eb 8a                        	jmp	0x8048480 <register_tm_clones>

080484f6 <execute>:
 80484f6: 55                           	push	ebp
 80484f7: 89 e5                        	mov	ebp, esp
 80484f9: 53                           	push	ebx
 80484fa: 83 ec 24                     	sub	esp, 36
 80484fd: e8 b8 01 00 00               	call	0x80486ba <__x86.get_pc_thunk.ax>
 8048502: 05 fe 1a 00 00               	add	eax, 6910
 8048507: 89 e2                        	mov	edx, esp
 8048509: 89 d3                        	mov	ebx, edx
 804850b: 83 7d 08 00                  	cmp	dword ptr [ebp + 8], 0
 804850f: 74 06                        	je	0x8048517 <execute+0x21>
 8048511: 83 7d 0c 00                  	cmp	dword ptr [ebp + 12], 0
 8048515: 75 0c                        	jne	0x8048523 <execute+0x2d>
 8048517: 83 ec 0c                     	sub	esp, 12
 804851a: 6a 01                        	push	1
 804851c: 89 c3                        	mov	ebx, eax
 804851e: e8 7d fe ff ff               	call	0x80483a0 <exit@plt>
 8048523: 8b 45 0c                     	mov	eax, dword ptr [ebp + 12]
 8048526: 01 c0                        	add	eax, eax
 8048528: 89 45 ec                     	mov	dword ptr [ebp - 20], eax
 804852b: 8b 45 ec                     	mov	eax, dword ptr [ebp - 20]
 804852e: 83 c0 01                     	add	eax, 1
 8048531: 89 c2                        	mov	edx, eax
 8048533: 83 ea 01                     	sub	edx, 1
 8048536: 89 55 e8                     	mov	dword ptr [ebp - 24], edx
 8048539: ba 10 00 00 00               	mov	edx, 16
 804853e: 83 ea 01                     	sub	edx, 1
 8048541: 01 d0                        	add	eax, edx
 8048543: b9 10 00 00 00               	mov	ecx, 16
 8048548: ba 00 00 00 00               	mov	edx, 0
 804854d: f7 f1                        	div	ecx
 804854f: 6b c0 10                     	imul	eax, eax, 16
 8048552: 29 c4                        	sub	esp, eax
 8048554: 89 e0                        	mov	eax, esp
 8048556: 83 c0 00                     	add	eax, 0
 8048559: 89 45 e4                     	mov	dword ptr [ebp - 28], eax
 804855c: c7 45 f0 00 00 00 00         	mov	dword ptr [ebp - 16], 0
 8048563: c7 45 f4 00 00 00 00         	mov	dword ptr [ebp - 12], 0
 804856a: eb 41                        	jmp	0x80485ad <execute+0xb7>
 804856c: 8b 45 f4                     	mov	eax, dword ptr [ebp - 12]
 804856f: 99                           	cdq
 8048570: c1 ea 1e                     	shr	edx, 30
 8048573: 01 d0                        	add	eax, edx
 8048575: 83 e0 03                     	and	eax, 3
 8048578: 29 d0                        	sub	eax, edx
 804857a: 83 f8 01                     	cmp	eax, 1
 804857d: 7f 1f                        	jg	0x804859e <execute+0xa8>
 804857f: 8b 45 f0                     	mov	eax, dword ptr [ebp - 16]
 8048582: 8d 50 01                     	lea	edx, [eax + 1]
 8048585: 89 55 f0                     	mov	dword ptr [ebp - 16], edx
 8048588: 89 c2                        	mov	edx, eax
 804858a: 8b 45 08                     	mov	eax, dword ptr [ebp + 8]
 804858d: 01 d0                        	add	eax, edx
 804858f: 0f b6 00                     	movzx	eax, byte ptr [eax]
 8048592: 8b 4d e4                     	mov	ecx, dword ptr [ebp - 28]
 8048595: 8b 55 f4                     	mov	edx, dword ptr [ebp - 12]
 8048598: 01 ca                        	add	edx, ecx
 804859a: 88 02                        	mov	byte ptr [edx], al
 804859c: eb 0b                        	jmp	0x80485a9 <execute+0xb3>
 804859e: 8b 55 e4                     	mov	edx, dword ptr [ebp - 28]
 80485a1: 8b 45 f4                     	mov	eax, dword ptr [ebp - 12]
 80485a4: 01 d0                        	add	eax, edx
 80485a6: c6 00 90                     	mov	byte ptr [eax], -112
 80485a9: 83 45 f4 01                  	add	dword ptr [ebp - 12], 1
 80485ad: 8b 45 f4                     	mov	eax, dword ptr [ebp - 12]
 80485b0: 39 45 ec                     	cmp	dword ptr [ebp - 20], eax
 80485b3: 77 b7                        	ja	0x804856c <execute+0x76>
 80485b5: 8b 55 e4                     	mov	edx, dword ptr [ebp - 28]
 80485b8: 8b 45 ec                     	mov	eax, dword ptr [ebp - 20]
 80485bb: 01 d0                        	add	eax, edx
 80485bd: c6 00 c3                     	mov	byte ptr [eax], -61
 80485c0: 8b 45 e4                     	mov	eax, dword ptr [ebp - 28]
 80485c3: 89 45 e0                     	mov	dword ptr [ebp - 32], eax
 80485c6: 8b 45 e0                     	mov	eax, dword ptr [ebp - 32]
 80485c9: ff d0                        	call	eax
 80485cb: 89 dc                        	mov	esp, ebx
 80485cd: 90                           	nop
 80485ce: 8b 5d fc                     	mov	ebx, dword ptr [ebp - 4]
 80485d1: c9                           	leave
 80485d2: c3                           	ret

080485d3 <main>:
 80485d3: 8d 4c 24 04                  	lea	ecx, [esp + 4]
 80485d7: 83 e4 f0                     	and	esp, -16
 80485da: ff 71 fc                     	push	dword ptr [ecx - 4]
 80485dd: 55                           	push	ebp
 80485de: 89 e5                        	mov	ebp, esp
 80485e0: 53                           	push	ebx
 80485e1: 51                           	push	ecx
 80485e2: 81 ec f0 03 00 00            	sub	esp, 1008
 80485e8: e8 43 fe ff ff               	call	0x8048430 <__x86.get_pc_thunk.bx>
 80485ed: 81 c3 13 1a 00 00            	add	ebx, 6675
 80485f3: 8b 83 fc ff ff ff            	mov	eax, dword ptr [ebx - 4]
 80485f9: 8b 00                        	mov	eax, dword ptr [eax]
 80485fb: 83 ec 08                     	sub	esp, 8
 80485fe: 6a 00                        	push	0
 8048600: 50                           	push	eax
 8048601: e8 7a fd ff ff               	call	0x8048380 <setbuf@plt>
 8048606: 83 c4 10                     	add	esp, 16
 8048609: c7 45 f4 00 00 00 00         	mov	dword ptr [ebp - 12], 0
 8048610: c6 45 f3 00                  	mov	byte ptr [ebp - 13], 0
 8048614: 83 ec 0c                     	sub	esp, 12
 8048617: 8d 83 40 e7 ff ff            	lea	eax, [ebx - 6336]
 804861d: 50                           	push	eax
 804861e: e8 6d fd ff ff               	call	0x8048390 <puts@plt>
 8048623: 83 c4 10                     	add	esp, 16
 8048626: 8b 83 f8 ff ff ff            	mov	eax, dword ptr [ebx - 8]
 804862c: 8b 00                        	mov	eax, dword ptr [eax]
 804862e: 83 ec 0c                     	sub	esp, 12
 8048631: 50                           	push	eax
 8048632: e8 89 fd ff ff               	call	0x80483c0 <fgetc@plt>
 8048637: 83 c4 10                     	add	esp, 16
 804863a: 88 45 f3                     	mov	byte ptr [ebp - 13], al
 804863d: eb 2c                        	jmp	0x804866b <main+0x98>
 804863f: 8d 95 0b fc ff ff            	lea	edx, [ebp - 1013]
 8048645: 8b 45 f4                     	mov	eax, dword ptr [ebp - 12]
 8048648: 01 c2                        	add	edx, eax
 804864a: 0f b6 45 f3                  	movzx	eax, byte ptr [ebp - 13]
 804864e: 88 02                        	mov	byte ptr [edx], al
 8048650: 8b 83 f8 ff ff ff            	mov	eax, dword ptr [ebx - 8]
 8048656: 8b 00                        	mov	eax, dword ptr [eax]
 8048658: 83 ec 0c                     	sub	esp, 12
 804865b: 50                           	push	eax
 804865c: e8 5f fd ff ff               	call	0x80483c0 <fgetc@plt>
 8048661: 83 c4 10                     	add	esp, 16
 8048664: 88 45 f3                     	mov	byte ptr [ebp - 13], al
 8048667: 83 45 f4 01                  	add	dword ptr [ebp - 12], 1
 804866b: 80 7d f3 0a                  	cmp	byte ptr [ebp - 13], 10
 804866f: 74 09                        	je	0x804867a <main+0xa7>
 8048671: 81 7d f4 e7 03 00 00         	cmp	dword ptr [ebp - 12], 999
 8048678: 76 c5                        	jbe	0x804863f <main+0x6c>
 804867a: 8b 45 f4                     	mov	eax, dword ptr [ebp - 12]
 804867d: 83 e0 01                     	and	eax, 1
 8048680: 85 c0                        	test	eax, eax
 8048682: 74 12                        	je	0x8048696 <main+0xc3>
 8048684: 8d 95 0b fc ff ff            	lea	edx, [ebp - 1013]
 804868a: 8b 45 f4                     	mov	eax, dword ptr [ebp - 12]
 804868d: 01 d0                        	add	eax, edx
 804868f: c6 00 90                     	mov	byte ptr [eax], -112
 8048692: 83 45 f4 01                  	add	dword ptr [ebp - 12], 1
 8048696: 83 ec 08                     	sub	esp, 8
 8048699: ff 75 f4                     	push	dword ptr [ebp - 12]
 804869c: 8d 85 0b fc ff ff            	lea	eax, [ebp - 1013]
 80486a2: 50                           	push	eax
 80486a3: e8 4e fe ff ff               	call	0x80484f6 <execute>
 80486a8: 83 c4 10                     	add	esp, 16
 80486ab: b8 00 00 00 00               	mov	eax, 0
 80486b0: 8d 65 f8                     	lea	esp, [ebp - 8]
 80486b3: 59                           	pop	ecx
 80486b4: 5b                           	pop	ebx
 80486b5: 5d                           	pop	ebp
 80486b6: 8d 61 fc                     	lea	esp, [ecx - 4]
 80486b9: c3                           	ret

080486ba <__x86.get_pc_thunk.ax>:
 80486ba: 8b 04 24                     	mov	eax, dword ptr [esp]
 80486bd: c3                           	ret
 80486be: 66 90                        	nop

080486c0 <__libc_csu_init>:
 80486c0: 55                           	push	ebp
 80486c1: 57                           	push	edi
 80486c2: 56                           	push	esi
 80486c3: 53                           	push	ebx
 80486c4: e8 67 fd ff ff               	call	0x8048430 <__x86.get_pc_thunk.bx>
 80486c9: 81 c3 37 19 00 00            	add	ebx, 6455
 80486cf: 83 ec 0c                     	sub	esp, 12
 80486d2: 8b 6c 24 28                  	mov	ebp, dword ptr [esp + 40]
 80486d6: 8d b3 08 ff ff ff            	lea	esi, [ebx - 248]
 80486dc: e8 6b fc ff ff               	call	0x804834c <_init>
 80486e1: 8d 83 04 ff ff ff            	lea	eax, [ebx - 252]
 80486e7: 29 c6                        	sub	esi, eax
 80486e9: c1 fe 02                     	sar	esi, 2
 80486ec: 85 f6                        	test	esi, esi
 80486ee: 74 25                        	je	0x8048715 <__libc_csu_init+0x55>
 80486f0: 31 ff                        	xor	edi, edi
 80486f2: 8d b6 00 00 00 00            	lea	esi, [esi]
 80486f8: 83 ec 04                     	sub	esp, 4
 80486fb: 55                           	push	ebp
 80486fc: ff 74 24 2c                  	push	dword ptr [esp + 44]
 8048700: ff 74 24 2c                  	push	dword ptr [esp + 44]
 8048704: ff 94 bb 04 ff ff ff         	call	dword ptr [ebx + 4*edi - 252]
 804870b: 83 c7 01                     	add	edi, 1
 804870e: 83 c4 10                     	add	esp, 16
 8048711: 39 fe                        	cmp	esi, edi
 8048713: 75 e3                        	jne	0x80486f8 <__libc_csu_init+0x38>
 8048715: 83 c4 0c                     	add	esp, 12
 8048718: 5b                           	pop	ebx
 8048719: 5e                           	pop	esi
 804871a: 5f                           	pop	edi
 804871b: 5d                           	pop	ebp
 804871c: c3                           	ret
 804871d: 8d 76 00                     	lea	esi, [esi]

08048720 <__libc_csu_fini>:
 8048720: f3 c3                        	rep		ret

Disassembly of section .fini:

08048724 <_fini>:
 8048724: 53                           	push	ebx
 8048725: 83 ec 08                     	sub	esp, 8
 8048728: e8 03 fd ff ff               	call	0x8048430 <__x86.get_pc_thunk.bx>
 804872d: 81 c3 d3 18 00 00            	add	ebx, 6355
 8048733: 83 c4 08                     	add	esp, 8
 8048736: 5b                           	pop	ebx
 8048737: c3                           	ret

Disassembly of section .rodata:

08048738 <_fp_hw>:
 8048738: 03 00                        	add	eax, dword ptr [eax]
 804873a: 00 00                        	add	byte ptr [eax], al

0804873c <_IO_stdin_used>:
 804873c: 01 00                        	add	dword ptr [eax], eax
 804873e: 02 00                        	add	al, byte ptr [eax]
 8048740: 47                           	inc	edi
 8048741: 69 76 65 20 6d 65 20         	imul	esi, dword ptr [esi + 101], 543517984
 8048748: 63 6f 64                     	arpl	word ptr [edi + 100], bp
 804874b: 65 20 74 6f 20               	and	byte ptr gs:[edi + 2*ebp + 32], dh
 8048750: 72 75                        	jb	0x80487c7 <stdout@@GLIBC_2.0+0x80487c7>
 8048752: 6e                           	outsb	dx, byte ptr [esi]
 8048753: 3a 00                        	cmp	al, byte ptr [eax]

Disassembly of section .eh_frame_hdr:

08048758 <__GNU_EH_FRAME_HDR>:
 8048758: 01 1b                        	add	dword ptr [ebx], ebx
 804875a: 03 3b                        	add	edi, dword ptr [ebx]
 804875c: 48                           	dec	eax
 804875d: 00 00                        	add	byte ptr [eax], al
 804875f: 00 08                        	add	byte ptr [eax], cl
 8048761: 00 00                        	add	byte ptr [eax], al
 8048763: 00 18                        	add	byte ptr [eax], bl
 8048765: fc                           	cld
 8048766: ff ff                        	<unknown>
 8048768: 78 00                        	js	0x804876a <__GNU_EH_FRAME_HDR+0x12>
 804876a: 00 00                        	add	byte ptr [eax], al
 804876c: 78 fc                        	js	0x804876a <__GNU_EH_FRAME_HDR+0x12>
 804876e: ff ff                        	<unknown>
 8048770: 9c                           	pushfd
 8048771: 00 00                        	add	byte ptr [eax], al
 8048773: 00 c8                        	add	al, cl
 8048775: fc                           	cld
 8048776: ff ff                        	<unknown>
 8048778: 64 00 00                     	add	byte ptr fs:[eax], al
 804877b: 00 9e fd ff ff b0            	add	byte ptr [esi - 1325400067], bl
 8048781: 00 00                        	add	byte ptr [eax], al
 8048783: 00 7b fe                     	add	byte ptr [ebx - 2], bh
 8048786: ff ff                        	<unknown>
 8048788: d4 00                        	aam	0
 804878a: 00 00                        	add	byte ptr [eax], al
 804878c: 62 ff                        	<unknown>
 804878e: ff ff                        	<unknown>
 8048790: 08 01                        	or	byte ptr [ecx], al
 8048792: 00 00                        	add	byte ptr [eax], al
 8048794: 68 ff ff ff 1c               	push	486539263
 8048799: 01 00                        	add	dword ptr [eax], eax
 804879b: 00 c8                        	add	al, cl
 804879d: ff ff                        	<unknown>
 804879f: ff 68 01                     	jmp	[eax + 1]
 80487a2: 00 00                        	add	byte ptr [eax], al

Disassembly of section .eh_frame:

080487a4 <.eh_frame>:
 80487a4: 14 00                        	adc	al, 0
 80487a6: 00 00                        	add	byte ptr [eax], al
 80487a8: 00 00                        	add	byte ptr [eax], al
 80487aa: 00 00                        	add	byte ptr [eax], al
 80487ac: 01 7a 52                     	add	dword ptr [edx + 82], edi
 80487af: 00 01                        	add	byte ptr [ecx], al
 80487b1: 7c 08                        	jl	0x80487bb <.eh_frame+0x17>
 80487b3: 01 1b                        	add	dword ptr [ebx], ebx
 80487b5: 0c 04                        	or	al, 4
 80487b7: 04 88                        	add	al, -120
 80487b9: 01 00                        	add	dword ptr [eax], eax
 80487bb: 00 10                        	add	byte ptr [eax], dl
 80487bd: 00 00                        	add	byte ptr [eax], al
 80487bf: 00 1c 00                     	add	byte ptr [eax + eax], bl
 80487c2: 00 00                        	add	byte ptr [eax], al
 80487c4: 5c                           	pop	esp
 80487c5: fc                           	cld
 80487c6: ff ff                        	<unknown>
 80487c8: 02 00                        	add	al, byte ptr [eax]
 80487ca: 00 00                        	add	byte ptr [eax], al
 80487cc: 00 00                        	add	byte ptr [eax], al
 80487ce: 00 00                        	add	byte ptr [eax], al
 80487d0: 20 00                        	and	byte ptr [eax], al
 80487d2: 00 00                        	add	byte ptr [eax], al
 80487d4: 30 00                        	xor	byte ptr [eax], al
 80487d6: 00 00                        	add	byte ptr [eax], al
 80487d8: 98                           	cwde
 80487d9: fb                           	sti
 80487da: ff ff                        	<unknown>
 80487dc: 60                           	pushal
 80487dd: 00 00                        	add	byte ptr [eax], al
 80487df: 00 00                        	add	byte ptr [eax], al
 80487e1: 0e                           	push	cs
 80487e2: 08 46 0e                     	or	byte ptr [esi + 14], al
 80487e5: 0c 4a                        	or	al, 74
 80487e7: 0f 0b                        	ud2
 80487e9: 74 04                        	je	0x80487ef <.eh_frame+0x4b>
 80487eb: 78 00                        	js	0x80487ed <.eh_frame+0x49>
 80487ed: 3f                           	aas
 80487ee: 1a 3b                        	sbb	bh, byte ptr [ebx]
 80487f0: 2a 32                        	sub	dh, byte ptr [edx]
 80487f2: 24 22                        	and	al, 34
 80487f4: 10 00                        	adc	byte ptr [eax], al
 80487f6: 00 00                        	add	byte ptr [eax], al
 80487f8: 54                           	push	esp
 80487f9: 00 00                        	add	byte ptr [eax], al
 80487fb: 00 d4                        	add	ah, dl
 80487fd: fb                           	sti
 80487fe: ff ff                        	<unknown>
 8048800: 08 00                        	or	byte ptr [eax], al
 8048802: 00 00                        	add	byte ptr [eax], al
 8048804: 00 00                        	add	byte ptr [eax], al
 8048806: 00 00                        	add	byte ptr [eax], al
 8048808: 20 00                        	and	byte ptr [eax], al
 804880a: 00 00                        	add	byte ptr [eax], al
 804880c: 68 00 00 00 e6               	push	3858759680
 8048811: fc                           	cld
 8048812: ff ff                        	<unknown>
 8048814: dd 00                        	fld	qword ptr [eax]
 8048816: 00 00                        	add	byte ptr [eax], al
 8048818: 00 41 0e                     	add	byte ptr [ecx + 14], al
 804881b: 08 85 02 42 0d 05            	or	byte ptr [ebp + 84754946], al
 8048821: 44                           	inc	esp
 8048822: 83 03 02                     	add	dword ptr [ebx], 2
 8048825: d5 c5                        	aad	-59
 8048827: c3                           	ret
 8048828: 0c 04                        	or	al, 4
 804882a: 04 00                        	add	al, 0
 804882c: 30 00                        	xor	byte ptr [eax], al
 804882e: 00 00                        	add	byte ptr [eax], al
 8048830: 8c 00                        	mov	word ptr [eax], es
 8048832: 00 00                        	add	byte ptr [eax], al
 8048834: 9f                           	lahf
 8048835: fd                           	std
 8048836: ff ff                        	<unknown>
 8048838: e7 00                        	out	0, eax
 804883a: 00 00                        	add	byte ptr [eax], al
 804883c: 00 44 0c 01                  	add	byte ptr [esp + ecx + 1], al
 8048840: 00 47 10                     	add	byte ptr [edi + 16], al
 8048843: 05 02 75 00 44               	add	eax, 1140880642
 8048848: 0f 03 75 78                  	lsl	esi, word ptr [ebp + 120]
 804884c: 06                           	push	es
 804884d: 10 03                        	adc	byte ptr [ebx], al
 804884f: 02 75 7c                     	add	dh, byte ptr [ebp + 124]
 8048852: 02 d2                        	add	dl, dl
 8048854: c1 0c 01 00                  	ror	dword ptr [ecx + eax], 0
 8048858: 41                           	inc	ecx
 8048859: c3                           	ret
 804885a: 41                           	inc	ecx
 804885b: c5 43 0c                     	lds	eax, [ebx + 12]
 804885e: 04 04                        	add	al, 4
 8048860: 10 00                        	adc	byte ptr [eax], al
 8048862: 00 00                        	add	byte ptr [eax], al
 8048864: c0 00 00                     	rol	byte ptr [eax], 0
 8048867: 00 52 fe                     	add	byte ptr [edx - 2], dl
 804886a: ff ff                        	<unknown>
 804886c: 04 00                        	add	al, 0
 804886e: 00 00                        	add	byte ptr [eax], al
 8048870: 00 00                        	add	byte ptr [eax], al
 8048872: 00 00                        	add	byte ptr [eax], al
 8048874: 48                           	dec	eax
 8048875: 00 00                        	add	byte ptr [eax], al
 8048877: 00 d4                        	add	ah, dl
 8048879: 00 00                        	add	byte ptr [eax], al
 804887b: 00 44 fe ff                  	add	byte ptr [esi + 8*edi - 1], al
 804887f: ff 5d 00                     	call	[ebp]
 8048882: 00 00                        	add	byte ptr [eax], al
 8048884: 00 41 0e                     	add	byte ptr [ecx + 14], al
 8048887: 08 85 02 41 0e 0c            	or	byte ptr [ebp + 202260738], al
 804888d: 87 03                        	xchg	dword ptr [ebx], eax
 804888f: 41                           	inc	ecx
 8048890: 0e                           	push	cs
 8048891: 10 86 04 41 0e 14            	adc	byte ptr [esi + 336478468], al
 8048897: 83 05 4e 0e 20 69 0e         	add	dword ptr [1763708494], 14
 804889e: 24 41                        	and	al, 65
 80488a0: 0e                           	push	cs
 80488a1: 28 44 0e 2c                  	sub	byte ptr [esi + ecx + 44], al
 80488a5: 44                           	inc	esp
 80488a6: 0e                           	push	cs
 80488a7: 30 4d 0e                     	xor	byte ptr [ebp + 14], cl
 80488aa: 20 47 0e                     	and	byte ptr [edi + 14], al
 80488ad: 14 41                        	adc	al, 65
 80488af: c3                           	ret
 80488b0: 0e                           	push	cs
 80488b1: 10 41 c6                     	adc	byte ptr [ecx - 58], al
 80488b4: 0e                           	push	cs
 80488b5: 0c 41                        	or	al, 65
 80488b7: c7 0e                        	<unknown>
 80488b9: 08 41 c5                     	or	byte ptr [ecx - 59], al
 80488bc: 0e                           	push	cs
 80488bd: 04 00                        	add	al, 0
 80488bf: 00 10                        	add	byte ptr [eax], dl
 80488c1: 00 00                        	add	byte ptr [eax], al
 80488c3: 00 20                        	add	byte ptr [eax], ah
 80488c5: 01 00                        	add	dword ptr [eax], eax
 80488c7: 00 58 fe                     	add	byte ptr [eax - 2], bl
 80488ca: ff ff                        	<unknown>
 80488cc: 02 00                        	add	al, byte ptr [eax]
 80488ce: 00 00                        	add	byte ptr [eax], al
 80488d0: 00 00                        	add	byte ptr [eax], al
 80488d2: 00 00                        	add	byte ptr [eax], al

080488d4 <__FRAME_END__>:
 80488d4: 00 00                        	add	byte ptr [eax], al
 80488d6: 00 00                        	add	byte ptr [eax], al

Disassembly of section .init_array:

08049f04 <__init_array_start>:
 8049f04: f0                           	lock
 8049f05: 84 04 08                     	test	byte ptr [eax + ecx], al

Disassembly of section .fini_array:

08049f08 <__do_global_dtors_aux_fini_array_entry>:
 8049f08: c0 84 04                     	<unknown>
 8049f0b: 08                           	<unknown>

Disassembly of section .dynamic:

08049f0c <_DYNAMIC>:
 8049f0c: 01 00                        	add	dword ptr [eax], eax
 8049f0e: 00 00                        	add	byte ptr [eax], al
 8049f10: 01 00                        	add	dword ptr [eax], eax
 8049f12: 00 00                        	add	byte ptr [eax], al
 8049f14: 0c 00                        	or	al, 0
 8049f16: 00 00                        	add	byte ptr [eax], al
 8049f18: 4c                           	dec	esp
 8049f19: 83 04 08 0d                  	add	dword ptr [eax + ecx], 13
 8049f1d: 00 00                        	add	byte ptr [eax], al
 8049f1f: 00 24 87                     	add	byte ptr [edi + 4*eax], ah
 8049f22: 04 08                        	add	al, 8
 8049f24: 19 00                        	sbb	dword ptr [eax], eax
 8049f26: 00 00                        	add	byte ptr [eax], al
 8049f28: 04 9f                        	add	al, -97
 8049f2a: 04 08                        	add	al, 8
 8049f2c: 1b 00                        	sbb	eax, dword ptr [eax]
 8049f2e: 00 00                        	add	byte ptr [eax], al
 8049f30: 04 00                        	add	al, 0
 8049f32: 00 00                        	add	byte ptr [eax], al
 8049f34: 1a 00                        	sbb	al, byte ptr [eax]
 8049f36: 00 00                        	add	byte ptr [eax], al
 8049f38: 08 9f 04 08 1c 00            	or	byte ptr [edi + 1837060], bl
 8049f3e: 00 00                        	add	byte ptr [eax], al
 8049f40: 04 00                        	add	al, 0
 8049f42: 00 00                        	add	byte ptr [eax], al
 8049f44: f5                           	cmc
 8049f45: fe ff                        	<unknown>
 8049f47: 6f                           	outsd	dx, dword ptr [esi]
 8049f48: ac                           	lodsb	al, byte ptr [esi]
 8049f49: 81 04 08 05 00 00 00         	add	dword ptr [eax + ecx], 5
 8049f50: 6c                           	insb	byte ptr es:[edi], dx
 8049f51: 82 04 08 06                  	add	byte ptr [eax + ecx], 6
 8049f55: 00 00                        	add	byte ptr [eax], al
 8049f57: 00 cc                        	add	ah, cl
 8049f59: 81 04 08 0a 00 00 00         	add	dword ptr [eax + ecx], 10
 8049f60: 69 00 00 00 0b 00            	imul	eax, dword ptr [eax], 720896
 8049f66: 00 00                        	add	byte ptr [eax], al
 8049f68: 10 00                        	adc	byte ptr [eax], al
 8049f6a: 00 00                        	add	byte ptr [eax], al
 8049f6c: 15 00 00 00 00               	adc	eax, 0
 8049f71: 00 00                        	add	byte ptr [eax], al
 8049f73: 00 03                        	add	byte ptr [ebx], al
 8049f75: 00 00                        	add	byte ptr [eax], al
 8049f77: 00 00                        	add	byte ptr [eax], al
 8049f79: a0 04 08 02 00               	mov	al, byte ptr [133124]
 8049f7e: 00 00                        	add	byte ptr [eax], al
 8049f80: 28 00                        	sub	byte ptr [eax], al
 8049f82: 00 00                        	add	byte ptr [eax], al
 8049f84: 14 00                        	adc	al, 0
 8049f86: 00 00                        	add	byte ptr [eax], al
 8049f88: 11 00                        	adc	dword ptr [eax], eax
 8049f8a: 00 00                        	add	byte ptr [eax], al
 8049f8c: 17                           	pop	ss
 8049f8d: 00 00                        	add	byte ptr [eax], al
 8049f8f: 00 24 83                     	add	byte ptr [ebx + 4*eax], ah
 8049f92: 04 08                        	add	al, 8
 8049f94: 11 00                        	adc	dword ptr [eax], eax
 8049f96: 00 00                        	add	byte ptr [eax], al
 8049f98: 0c 83                        	or	al, -125
 8049f9a: 04 08                        	add	al, 8
 8049f9c: 12 00                        	adc	al, byte ptr [eax]
 8049f9e: 00 00                        	add	byte ptr [eax], al
 8049fa0: 18 00                        	sbb	byte ptr [eax], al
 8049fa2: 00 00                        	add	byte ptr [eax], al
 8049fa4: 13 00                        	adc	eax, dword ptr [eax]
 8049fa6: 00 00                        	add	byte ptr [eax], al
 8049fa8: 08 00                        	or	byte ptr [eax], al
 8049faa: 00 00                        	add	byte ptr [eax], al
 8049fac: fe ff                        	<unknown>
 8049fae: ff 6f ec                     	jmp	[edi - 20]
 8049fb1: 82 04 08 ff                  	add	byte ptr [eax + ecx], -1
 8049fb5: ff ff                        	<unknown>
 8049fb7: 6f                           	outsd	dx, dword ptr [esi]
 8049fb8: 01 00                        	add	dword ptr [eax], eax
 8049fba: 00 00                        	add	byte ptr [eax], al
 8049fbc: f0                           	lock
 8049fbd: ff ff                        	<unknown>
 8049fbf: 6f                           	outsd	dx, dword ptr [esi]
 8049fc0: d6                           	salc
 8049fc1: 82 04 08 00                  	add	byte ptr [eax + ecx], 0
		...
 8049ff1: 00 00                        	add	byte ptr [eax], al
 8049ff3: 00                           	<unknown>

Disassembly of section .got:

08049ff4 <.got>:
		...

Disassembly of section .got.plt:

0804a000 <_GLOBAL_OFFSET_TABLE_>:
 804a000: 0c 9f                        	or	al, -97
 804a002: 04 08                        	add	al, 8
		...
 804a00c: 86 83 04 08 96 83            	xchg	byte ptr [ebx - 2087319548], al
 804a012: 04 08                        	add	al, 8
 804a014: a6                           	cmpsb	byte ptr [esi], byte ptr es:[edi]
 804a015: 83 04 08 b6                  	add	dword ptr [eax + ecx], -74
 804a019: 83 04 08 c6                  	add	dword ptr [eax + ecx], -58
 804a01d: 83 04 08                     	<unknown>

Disassembly of section .data:

0804a020 <data_start>:
 804a020: 00 00                        	add	byte ptr [eax], al
 804a022: 00 00                        	add	byte ptr [eax], al

0804a024 <__dso_handle>:
 804a024: 00 00                        	add	byte ptr [eax], al
 804a026: 00 00                        	add	byte ptr [eax], al

Disassembly of section .bss:

0804a028 <completed.7283>:
...

Disassembly of section .comment:

00000000 <.comment>:
       0: 47                           	inc	edi
       1: 43                           	inc	ebx
       2: 43                           	inc	ebx
       3: 3a 20                        	cmp	ah, byte ptr [eax]
       5: 28 55 62                     	sub	byte ptr [ebp + 98], dl
       8: 75 6e                        	jne	0x78 <.comment+0x78>
       a: 74 75                        	je	0x81 <.comment+0x81>
       c: 20 37                        	and	byte ptr [edi], dh
       e: 2e 35 2e 30 2d 33            	xor	eax, 858599470
      14: 75 62                        	jne	0x78 <.comment+0x78>
      16: 75 6e                        	jne	0x86 <.comment+0x86>
      18: 74 75                        	je	0x8f <.comment+0x8f>
      1a: 31 7e 31                     	xor	dword ptr [esi + 49], edi
      1d: 38 2e                        	cmp	byte ptr [esi], ch
      1f: 30 34 29                     	xor	byte ptr [ecx + ebp], dh
      22: 20 37                        	and	byte ptr [edi], dh
      24: 2e 35                        	<unknown>
      26: 2e 30 00                     	xor	byte ptr cs:[eax], al

Disassembly of section .symtab:

00000000 <.symtab>:
		...
      14: 54                           	push	esp
      15: 81 04 08 00 00 00 00         	add	dword ptr [eax + ecx], 0
      1c: 03 00                        	add	eax, dword ptr [eax]
      1e: 01 00                        	add	dword ptr [eax], eax
      20: 00 00                        	add	byte ptr [eax], al
      22: 00 00                        	add	byte ptr [eax], al
      24: 68 81 04 08 00               	push	525441
      29: 00 00                        	add	byte ptr [eax], al
      2b: 00 03                        	add	byte ptr [ebx], al
      2d: 00 02                        	add	byte ptr [edx], al
      2f: 00 00                        	add	byte ptr [eax], al
      31: 00 00                        	add	byte ptr [eax], al
      33: 00 88 81 04 08 00            	add	byte ptr [eax + 525441], cl
      39: 00 00                        	add	byte ptr [eax], al
      3b: 00 03                        	add	byte ptr [ebx], al
      3d: 00 03                        	add	byte ptr [ebx], al
      3f: 00 00                        	add	byte ptr [eax], al
      41: 00 00                        	add	byte ptr [eax], al
      43: 00 ac 81 04 08 00 00         	add	byte ptr [ecx + 4*eax + 2052], ch
      4a: 00 00                        	add	byte ptr [eax], al
      4c: 03 00                        	add	eax, dword ptr [eax]
      4e: 04 00                        	add	al, 0
      50: 00 00                        	add	byte ptr [eax], al
      52: 00 00                        	add	byte ptr [eax], al
      54: cc                           	int3
      55: 81 04 08 00 00 00 00         	add	dword ptr [eax + ecx], 0
      5c: 03 00                        	add	eax, dword ptr [eax]
      5e: 05 00 00 00 00               	add	eax, 0
      63: 00 6c 82 04                  	add	byte ptr [edx + 4*eax + 4], ch
      67: 08 00                        	or	byte ptr [eax], al
      69: 00 00                        	add	byte ptr [eax], al
      6b: 00 03                        	add	byte ptr [ebx], al
      6d: 00 06                        	add	byte ptr [esi], al
      6f: 00 00                        	add	byte ptr [eax], al
      71: 00 00                        	add	byte ptr [eax], al
      73: 00 d6                        	add	dh, dl
      75: 82 04 08 00                  	add	byte ptr [eax + ecx], 0
      79: 00 00                        	add	byte ptr [eax], al
      7b: 00 03                        	add	byte ptr [ebx], al
      7d: 00 07                        	add	byte ptr [edi], al
      7f: 00 00                        	add	byte ptr [eax], al
      81: 00 00                        	add	byte ptr [eax], al
      83: 00 ec                        	add	ah, ch
      85: 82 04 08 00                  	add	byte ptr [eax + ecx], 0
      89: 00 00                        	add	byte ptr [eax], al
      8b: 00 03                        	add	byte ptr [ebx], al
      8d: 00 08                        	add	byte ptr [eax], cl
      8f: 00 00                        	add	byte ptr [eax], al
      91: 00 00                        	add	byte ptr [eax], al
      93: 00 0c 83                     	add	byte ptr [ebx + 4*eax], cl
      96: 04 08                        	add	al, 8
      98: 00 00                        	add	byte ptr [eax], al
      9a: 00 00                        	add	byte ptr [eax], al
      9c: 03 00                        	add	eax, dword ptr [eax]
      9e: 09 00                        	or	dword ptr [eax], eax
      a0: 00 00                        	add	byte ptr [eax], al
      a2: 00 00                        	add	byte ptr [eax], al
      a4: 24 83                        	and	al, -125
      a6: 04 08                        	add	al, 8
      a8: 00 00                        	add	byte ptr [eax], al
      aa: 00 00                        	add	byte ptr [eax], al
      ac: 03 00                        	add	eax, dword ptr [eax]
      ae: 0a 00                        	or	al, byte ptr [eax]
      b0: 00 00                        	add	byte ptr [eax], al
      b2: 00 00                        	add	byte ptr [eax], al
      b4: 4c                           	dec	esp
      b5: 83 04 08 00                  	add	dword ptr [eax + ecx], 0
      b9: 00 00                        	add	byte ptr [eax], al
      bb: 00 03                        	add	byte ptr [ebx], al
      bd: 00 0b                        	add	byte ptr [ebx], cl
      bf: 00 00                        	add	byte ptr [eax], al
      c1: 00 00                        	add	byte ptr [eax], al
      c3: 00 70 83                     	add	byte ptr [eax - 125], dh
      c6: 04 08                        	add	al, 8
      c8: 00 00                        	add	byte ptr [eax], al
      ca: 00 00                        	add	byte ptr [eax], al
      cc: 03 00                        	add	eax, dword ptr [eax]
      ce: 0c 00                        	or	al, 0
      d0: 00 00                        	add	byte ptr [eax], al
      d2: 00 00                        	add	byte ptr [eax], al
      d4: d0 83 04 08 00 00            	rol	byte ptr [ebx + 2052]
      da: 00 00                        	add	byte ptr [eax], al
      dc: 03 00                        	add	eax, dword ptr [eax]
      de: 0d 00 00 00 00               	or	eax, 0
      e3: 00 e0                        	add	al, ah
      e5: 83 04 08 00                  	add	dword ptr [eax + ecx], 0
      e9: 00 00                        	add	byte ptr [eax], al
      eb: 00 03                        	add	byte ptr [ebx], al
      ed: 00 0e                        	add	byte ptr [esi], cl
      ef: 00 00                        	add	byte ptr [eax], al
      f1: 00 00                        	add	byte ptr [eax], al
      f3: 00 24 87                     	add	byte ptr [edi + 4*eax], ah
      f6: 04 08                        	add	al, 8
      f8: 00 00                        	add	byte ptr [eax], al
      fa: 00 00                        	add	byte ptr [eax], al
      fc: 03 00                        	add	eax, dword ptr [eax]
      fe: 0f 00 00                     	sldt	word ptr [eax]
     101: 00 00                        	add	byte ptr [eax], al
     103: 00 38                        	add	byte ptr [eax], bh
     105: 87 04 08                     	xchg	dword ptr [eax + ecx], eax
     108: 00 00                        	add	byte ptr [eax], al
     10a: 00 00                        	add	byte ptr [eax], al
     10c: 03 00                        	add	eax, dword ptr [eax]
     10e: 10 00                        	adc	byte ptr [eax], al
     110: 00 00                        	add	byte ptr [eax], al
     112: 00 00                        	add	byte ptr [eax], al
     114: 58                           	pop	eax
     115: 87 04 08                     	xchg	dword ptr [eax + ecx], eax
     118: 00 00                        	add	byte ptr [eax], al
     11a: 00 00                        	add	byte ptr [eax], al
     11c: 03 00                        	add	eax, dword ptr [eax]
     11e: 11 00                        	adc	dword ptr [eax], eax
     120: 00 00                        	add	byte ptr [eax], al
     122: 00 00                        	add	byte ptr [eax], al
     124: a4                           	movsb	byte ptr es:[edi], byte ptr [esi]
     125: 87 04 08                     	xchg	dword ptr [eax + ecx], eax
     128: 00 00                        	add	byte ptr [eax], al
     12a: 00 00                        	add	byte ptr [eax], al
     12c: 03 00                        	add	eax, dword ptr [eax]
     12e: 12 00                        	adc	al, byte ptr [eax]
     130: 00 00                        	add	byte ptr [eax], al
     132: 00 00                        	add	byte ptr [eax], al
     134: 04 9f                        	add	al, -97
     136: 04 08                        	add	al, 8
     138: 00 00                        	add	byte ptr [eax], al
     13a: 00 00                        	add	byte ptr [eax], al
     13c: 03 00                        	add	eax, dword ptr [eax]
     13e: 13 00                        	adc	eax, dword ptr [eax]
     140: 00 00                        	add	byte ptr [eax], al
     142: 00 00                        	add	byte ptr [eax], al
     144: 08 9f 04 08 00 00            	or	byte ptr [edi + 2052], bl
     14a: 00 00                        	add	byte ptr [eax], al
     14c: 03 00                        	add	eax, dword ptr [eax]
     14e: 14 00                        	adc	al, 0
     150: 00 00                        	add	byte ptr [eax], al
     152: 00 00                        	add	byte ptr [eax], al
     154: 0c 9f                        	or	al, -97
     156: 04 08                        	add	al, 8
     158: 00 00                        	add	byte ptr [eax], al
     15a: 00 00                        	add	byte ptr [eax], al
     15c: 03 00                        	add	eax, dword ptr [eax]
     15e: 15 00 00 00 00               	adc	eax, 0
     163: 00 f4                        	add	ah, dh
     165: 9f                           	lahf
     166: 04 08                        	add	al, 8
     168: 00 00                        	add	byte ptr [eax], al
     16a: 00 00                        	add	byte ptr [eax], al
     16c: 03 00                        	add	eax, dword ptr [eax]
     16e: 16                           	push	ss
     16f: 00 00                        	add	byte ptr [eax], al
     171: 00 00                        	add	byte ptr [eax], al
     173: 00 00                        	add	byte ptr [eax], al
     175: a0 04 08 00 00               	mov	al, byte ptr [2052]
     17a: 00 00                        	add	byte ptr [eax], al
     17c: 03 00                        	add	eax, dword ptr [eax]
     17e: 17                           	pop	ss
     17f: 00 00                        	add	byte ptr [eax], al
     181: 00 00                        	add	byte ptr [eax], al
     183: 00 20                        	add	byte ptr [eax], ah
     185: a0 04 08 00 00               	mov	al, byte ptr [2052]
     18a: 00 00                        	add	byte ptr [eax], al
     18c: 03 00                        	add	eax, dword ptr [eax]
     18e: 18 00                        	sbb	byte ptr [eax], al
     190: 00 00                        	add	byte ptr [eax], al
     192: 00 00                        	add	byte ptr [eax], al
     194: 28 a0 04 08 00 00            	sub	byte ptr [eax + 2052], ah
     19a: 00 00                        	add	byte ptr [eax], al
     19c: 03 00                        	add	eax, dword ptr [eax]
     19e: 19 00                        	sbb	dword ptr [eax], eax
		...
     1ac: 03 00                        	add	eax, dword ptr [eax]
     1ae: 1a 00                        	sbb	al, byte ptr [eax]
     1b0: 01 00                        	add	dword ptr [eax], eax
		...
     1ba: 00 00                        	add	byte ptr [eax], al
     1bc: 04 00                        	add	al, 0
     1be: f1                           	<unknown>
     1bf: ff 0c 00                     	dec	dword ptr [eax + eax]
     1c2: 00 00                        	add	byte ptr [eax], al
     1c4: 40                           	inc	eax
     1c5: 84 04 08                     	test	byte ptr [eax + ecx], al
     1c8: 00 00                        	add	byte ptr [eax], al
     1ca: 00 00                        	add	byte ptr [eax], al
     1cc: 02 00                        	add	al, byte ptr [eax]
     1ce: 0e                           	push	cs
     1cf: 00 0e                        	add	byte ptr [esi], cl
     1d1: 00 00                        	add	byte ptr [eax], al
     1d3: 00 80 84 04 08 00            	add	byte ptr [eax + 525444], al
     1d9: 00 00                        	add	byte ptr [eax], al
     1db: 00 02                        	add	byte ptr [edx], al
     1dd: 00 0e                        	add	byte ptr [esi], cl
     1df: 00 21                        	add	byte ptr [ecx], ah
     1e1: 00 00                        	add	byte ptr [eax], al
     1e3: 00 c0                        	add	al, al
     1e5: 84 04 08                     	test	byte ptr [eax + ecx], al
     1e8: 00 00                        	add	byte ptr [eax], al
     1ea: 00 00                        	add	byte ptr [eax], al
     1ec: 02 00                        	add	al, byte ptr [eax]
     1ee: 0e                           	push	cs
     1ef: 00 37                        	add	byte ptr [edi], dh
     1f1: 00 00                        	add	byte ptr [eax], al
     1f3: 00 28                        	add	byte ptr [eax], ch
     1f5: a0 04 08 01 00               	mov	al, byte ptr [67588]
     1fa: 00 00                        	add	byte ptr [eax], al
     1fc: 01 00                        	add	dword ptr [eax], eax
     1fe: 19 00                        	sbb	dword ptr [eax], eax
     200: 46                           	inc	esi
     201: 00 00                        	add	byte ptr [eax], al
     203: 00 08                        	add	byte ptr [eax], cl
     205: 9f                           	lahf
     206: 04 08                        	add	al, 8
     208: 00 00                        	add	byte ptr [eax], al
     20a: 00 00                        	add	byte ptr [eax], al
     20c: 01 00                        	add	dword ptr [eax], eax
     20e: 14 00                        	adc	al, 0
     210: 6d                           	insd	dword ptr es:[edi], dx
     211: 00 00                        	add	byte ptr [eax], al
     213: 00 f0                        	add	al, dh
     215: 84 04 08                     	test	byte ptr [eax + ecx], al
     218: 00 00                        	add	byte ptr [eax], al
     21a: 00 00                        	add	byte ptr [eax], al
     21c: 02 00                        	add	al, byte ptr [eax]
     21e: 0e                           	push	cs
     21f: 00 79 00                     	add	byte ptr [ecx], bh
     222: 00 00                        	add	byte ptr [eax], al
     224: 04 9f                        	add	al, -97
     226: 04 08                        	add	al, 8
     228: 00 00                        	add	byte ptr [eax], al
     22a: 00 00                        	add	byte ptr [eax], al
     22c: 01 00                        	add	dword ptr [eax], eax
     22e: 13 00                        	adc	eax, dword ptr [eax]
     230: 98                           	cwde
		...
     239: 00 00                        	add	byte ptr [eax], al
     23b: 00 04 00                     	add	byte ptr [eax + eax], al
     23e: f1                           	<unknown>
     23f: ff 01                        	inc	dword ptr [ecx]
		...
     249: 00 00                        	add	byte ptr [eax], al
     24b: 00 04 00                     	add	byte ptr [eax + eax], al
     24e: f1                           	<unknown>
     24f: ff 9e 00 00 00 d4            	call	[esi - 738197504]
     255: 88 04 08                     	mov	byte ptr [eax + ecx], al
     258: 00 00                        	add	byte ptr [eax], al
     25a: 00 00                        	add	byte ptr [eax], al
     25c: 01 00                        	add	dword ptr [eax], eax
     25e: 12 00                        	adc	al, byte ptr [eax]
		...
     26c: 04 00                        	add	al, 0
     26e: f1                           	<unknown>
     26f: ff ac 00 00 00 08 9f         	jmp	[eax + eax - 1626865664]
     276: 04 08                        	add	al, 8
     278: 00 00                        	add	byte ptr [eax], al
     27a: 00 00                        	add	byte ptr [eax], al
     27c: 00 00                        	add	byte ptr [eax], al
     27e: 13 00                        	adc	eax, dword ptr [eax]
     280: bd 00 00 00 0c               	mov	ebp, 201326592
     285: 9f                           	lahf
     286: 04 08                        	add	al, 8
     288: 00 00                        	add	byte ptr [eax], al
     28a: 00 00                        	add	byte ptr [eax], al
     28c: 01 00                        	add	dword ptr [eax], eax
     28e: 15 00 c6 00 00               	adc	eax, 50688
     293: 00 04 9f                     	add	byte ptr [edi + 4*ebx], al
     296: 04 08                        	add	al, 8
     298: 00 00                        	add	byte ptr [eax], al
     29a: 00 00                        	add	byte ptr [eax], al
     29c: 00 00                        	add	byte ptr [eax], al
     29e: 13 00                        	adc	eax, dword ptr [eax]
     2a0: d9 00                        	fld	dword ptr [eax]
     2a2: 00 00                        	add	byte ptr [eax], al
     2a4: 58                           	pop	eax
     2a5: 87 04 08                     	xchg	dword ptr [eax + ecx], eax
     2a8: 00 00                        	add	byte ptr [eax], al
     2aa: 00 00                        	add	byte ptr [eax], al
     2ac: 00 00                        	add	byte ptr [eax], al
     2ae: 11 00                        	adc	dword ptr [eax], eax
     2b0: ec                           	in	al, dx
     2b1: 00 00                        	add	byte ptr [eax], al
     2b3: 00 00                        	add	byte ptr [eax], al
     2b5: a0 04 08 00 00               	mov	al, byte ptr [2052]
     2ba: 00 00                        	add	byte ptr [eax], al
     2bc: 01 00                        	add	dword ptr [eax], eax
     2be: 17                           	pop	ss
     2bf: 00 02                        	add	byte ptr [edx], al
     2c1: 01 00                        	add	dword ptr [eax], eax
     2c3: 00 20                        	add	byte ptr [eax], ah
     2c5: 87 04 08                     	xchg	dword ptr [eax + ecx], eax
     2c8: 02 00                        	add	al, byte ptr [eax]
     2ca: 00 00                        	add	byte ptr [eax], al
     2cc: 12 00                        	adc	al, byte ptr [eax]
     2ce: 0e                           	push	cs
     2cf: 00 12                        	add	byte ptr [edx], dl
     2d1: 01 00                        	add	dword ptr [eax], eax
		...
     2db: 00 12                        	add	byte ptr [edx], dl
     2dd: 00 00                        	add	byte ptr [eax], al
     2df: 00 24 01                     	add	byte ptr [ecx + eax], ah
     2e2: 00 00                        	add	byte ptr [eax], al
     2e4: 30 84 04 08 04 00 00         	xor	byte ptr [esp + eax + 1032], al
     2eb: 00 12                        	add	byte ptr [edx], dl
     2ed: 02 0e                        	add	cl, byte ptr [esi]
     2ef: 00 4b 01                     	add	byte ptr [ebx + 1], cl
     2f2: 00 00                        	add	byte ptr [eax], al
     2f4: 20 a0 04 08 00 00            	and	byte ptr [eax + 2052], ah
     2fa: 00 00                        	add	byte ptr [eax], al
     2fc: 20 00                        	and	byte ptr [eax], al
     2fe: 18 00                        	sbb	byte ptr [eax], al
     300: 3a 01                        	cmp	al, byte ptr [ecx]
     302: 00 00                        	add	byte ptr [eax], al
     304: 28 a0 04 08 00 00            	sub	byte ptr [eax + 2052], ah
     30a: 00 00                        	add	byte ptr [eax], al
     30c: 10 00                        	adc	byte ptr [eax], al
     30e: 18 00                        	sbb	byte ptr [eax], al
     310: 0c 01                        	or	al, 1
     312: 00 00                        	add	byte ptr [eax], al
     314: 24 87                        	and	al, -121
     316: 04 08                        	add	al, 8
     318: 00 00                        	add	byte ptr [eax], al
     31a: 00 00                        	add	byte ptr [eax], al
     31c: 12 00                        	adc	al, byte ptr [eax]
     31e: 0f 00 41 01                  	sldt	word ptr [ecx + 1]
     322: 00 00                        	add	byte ptr [eax], al
     324: f6 84 04 08 dd 00 00 00      	test	byte ptr [esp + eax + 56584], 0
     32c: 12 00                        	adc	al, byte ptr [eax]
     32e: 0e                           	push	cs
     32f: 00 49 01                     	add	byte ptr [ecx + 1], cl
     332: 00 00                        	add	byte ptr [eax], al
     334: 20 a0 04 08 00 00            	and	byte ptr [eax + 2052], ah
     33a: 00 00                        	add	byte ptr [eax], al
     33c: 10 00                        	adc	byte ptr [eax], al
     33e: 18 00                        	sbb	byte ptr [eax], al
     340: 56                           	push	esi
     341: 01 00                        	add	dword ptr [eax], eax
		...
     34b: 00 12                        	add	byte ptr [edx], dl
     34d: 00 00                        	add	byte ptr [eax], al
     34f: 00 66 01                     	add	byte ptr [esi + 1], ah
		...
     35a: 00 00                        	add	byte ptr [eax], al
     35c: 20 00                        	and	byte ptr [eax], al
     35e: 00 00                        	add	byte ptr [eax], al
     360: 75 01                        	jne	0x363 <.symtab+0x363>
		...
     36a: 00 00                        	add	byte ptr [eax], al
     36c: 12 00                        	adc	al, byte ptr [eax]
     36e: 00 00                        	add	byte ptr [eax], al
     370: 85 01                        	test	dword ptr [ecx], eax
     372: 00 00                        	add	byte ptr [eax], al
     374: 24 a0                        	and	al, -96
     376: 04 08                        	add	al, 8
     378: 00 00                        	add	byte ptr [eax], al
     37a: 00 00                        	add	byte ptr [eax], al
     37c: 11 02                        	adc	dword ptr [edx], eax
     37e: 18 00                        	sbb	byte ptr [eax], al
     380: 92                           	xchg	eax, edx
     381: 01 00                        	add	dword ptr [eax], eax
     383: 00 3c 87                     	add	byte ptr [edi + 4*eax], bh
     386: 04 08                        	add	al, 8
     388: 04 00                        	add	al, 0
     38a: 00 00                        	add	byte ptr [eax], al
     38c: 11 00                        	adc	dword ptr [eax], eax
     38e: 10 00                        	adc	byte ptr [eax], al
     390: a1 01 00 00 00               	mov	eax, dword ptr [1]
     395: 00 00                        	add	byte ptr [eax], al
     397: 00 00                        	add	byte ptr [eax], al
     399: 00 00                        	add	byte ptr [eax], al
     39b: 00 12                        	add	byte ptr [edx], dl
     39d: 00 00                        	add	byte ptr [eax], al
     39f: 00 be 01 00 00 c0            	add	byte ptr [esi - 1073741823], bh
     3a5: 86 04 08                     	xchg	byte ptr [eax + ecx], al
     3a8: 5d                           	pop	ebp
     3a9: 00 00                        	add	byte ptr [eax], al
     3ab: 00 12                        	add	byte ptr [edx], dl
     3ad: 00 0e                        	add	byte ptr [esi], cl
     3af: 00 ce                        	add	dh, cl
     3b1: 01 00                        	add	dword ptr [eax], eax
		...
     3bb: 00 11                        	add	byte ptr [ecx], dl
     3bd: 00 00                        	add	byte ptr [eax], al
     3bf: 00 b8 00 00 00 2c            	add	byte ptr [eax + 738197504], bh
     3c5: a0 04 08 00 00               	mov	al, byte ptr [2052]
     3ca: 00 00                        	add	byte ptr [eax], al
     3cc: 10 00                        	adc	byte ptr [eax], al
     3ce: 19 00                        	sbb	dword ptr [eax], eax
     3d0: df 01                        	fild	word ptr [ecx]
     3d2: 00 00                        	add	byte ptr [eax], al
     3d4: 20 84 04 08 02 00 00         	and	byte ptr [esp + eax + 520], al
     3db: 00 12                        	add	byte ptr [edx], dl
     3dd: 02 0e                        	add	cl, byte ptr [esi]
     3df: 00 4f 01                     	add	byte ptr [edi + 1], cl
     3e2: 00 00                        	add	byte ptr [eax], al
     3e4: e0 83                        	loopne	0x369 <.symtab+0x369>
     3e6: 04 08                        	add	al, 8
     3e8: 00 00                        	add	byte ptr [eax], al
     3ea: 00 00                        	add	byte ptr [eax], al
     3ec: 12 00                        	adc	al, byte ptr [eax]
     3ee: 0e                           	push	cs
     3ef: 00 f7                        	add	bh, dh
     3f1: 01 00                        	add	dword ptr [eax], eax
     3f3: 00 38                        	add	byte ptr [eax], bh
     3f5: 87 04 08                     	xchg	dword ptr [eax + ecx], eax
     3f8: 04 00                        	add	al, 0
     3fa: 00 00                        	add	byte ptr [eax], al
     3fc: 11 00                        	adc	dword ptr [eax], eax
     3fe: 10 00                        	adc	byte ptr [eax], al
     400: fe 01                        	inc	byte ptr [ecx]
		...
     40a: 00 00                        	add	byte ptr [eax], al
     40c: 12 00                        	adc	al, byte ptr [eax]
     40e: 00 00                        	add	byte ptr [eax], al
     410: 0f 02 00                     	lar	eax, word ptr [eax]
		...
     41b: 00 11                        	add	byte ptr [ecx], dl
     41d: 00 00                        	add	byte ptr [eax], al
     41f: 00 21                        	add	byte ptr [ecx], ah
     421: 02 00                        	add	al, byte ptr [eax]
     423: 00 28                        	add	byte ptr [eax], ch
     425: a0 04 08 00 00               	mov	al, byte ptr [2052]
     42a: 00 00                        	add	byte ptr [eax], al
     42c: 10 00                        	adc	byte ptr [eax], al
     42e: 19 00                        	sbb	dword ptr [eax], eax
     430: 2d 02 00 00 d3               	sub	eax, 3539992578
     435: 85 04 08                     	test	dword ptr [eax + ecx], eax
     438: e7 00                        	out	0, eax
     43a: 00 00                        	add	byte ptr [eax], al
     43c: 12 00                        	adc	al, byte ptr [eax]
     43e: 0e                           	push	cs
     43f: 00 32                        	add	byte ptr [edx], dh
     441: 02 00                        	add	al, byte ptr [eax]
     443: 00 ba 86 04 08 00            	add	byte ptr [edx + 525446], bh
     449: 00 00                        	add	byte ptr [eax], al
     44b: 00 12                        	add	byte ptr [edx], dl
     44d: 02 0e                        	add	cl, byte ptr [esi]
     44f: 00 48 02                     	add	byte ptr [eax + 2], cl
     452: 00 00                        	add	byte ptr [eax], al
     454: 28 a0 04 08 00 00            	sub	byte ptr [eax + 2052], ah
     45a: 00 00                        	add	byte ptr [eax], al
     45c: 11 02                        	adc	dword ptr [edx], eax
     45e: 18 00                        	sbb	byte ptr [eax], al
     460: c8 01 00 00                  	enter	1, 0
     464: 4c                           	dec	esp
     465: 83 04 08 00                  	add	dword ptr [eax + ecx], 0
     469: 00 00                        	add	byte ptr [eax], al
     46b: 00 12                        	add	byte ptr [edx], dl
     46d: 00 0b                        	add	byte ptr [ebx], cl
     46f: 00                           	<unknown>

Disassembly of section .strtab:

00000000 <.strtab>:
       0: 00 63 72                     	add	byte ptr [ebx + 114], ah
       3: 74 73                        	je	0x78 <.symtab+0x78>
       5: 74 75                        	je	0x7c <.symtab+0x7c>
       7: 66 66 2e 63 00               	arpl	word ptr cs:[eax], ax
       c: 64 65 72 65                  	jb	0x75 <.symtab+0x75>
      10: 67 69 73 74 65 72 5f 74      	imul	esi, dword ptr [bp + di + 116], 1952412261
      18: 6d                           	insd	dword ptr es:[edi], dx
      19: 5f                           	pop	edi
      1a: 63 6c 6f 6e                  	arpl	word ptr [edi + 2*ebp + 110], bp
      1e: 65 73 00                     	jae	0x21 <.symtab+0x21>
      21: 5f                           	pop	edi
      22: 5f                           	pop	edi
      23: 64 6f                        	outsd	dx, dword ptr fs:[esi]
      25: 5f                           	pop	edi
      26: 67 6c                        	insb	byte ptr es:[di], dx
      28: 6f                           	outsd	dx, dword ptr [esi]
      29: 62 61 6c                     	bound	esp, dword ptr [ecx + 108]
      2c: 5f                           	pop	edi
      2d: 64 74 6f                     	je	0x9f <.symtab+0x9f>
      30: 72 73                        	jb	0xa5 <.symtab+0xa5>
      32: 5f                           	pop	edi
      33: 61                           	popal
      34: 75 78                        	jne	0xae <.symtab+0xae>
      36: 00 63 6f                     	add	byte ptr [ebx + 111], ah
      39: 6d                           	insd	dword ptr es:[edi], dx
      3a: 70 6c                        	jo	0xa8 <.symtab+0xa8>
      3c: 65 74 65                     	je	0xa4 <.symtab+0xa4>
      3f: 64 2e 37                     	aaa
      42: 32 38                        	xor	bh, byte ptr [eax]
      44: 33 00                        	xor	eax, dword ptr [eax]
      46: 5f                           	pop	edi
      47: 5f                           	pop	edi
      48: 64 6f                        	outsd	dx, dword ptr fs:[esi]
      4a: 5f                           	pop	edi
      4b: 67 6c                        	insb	byte ptr es:[di], dx
      4d: 6f                           	outsd	dx, dword ptr [esi]
      4e: 62 61 6c                     	bound	esp, dword ptr [ecx + 108]
      51: 5f                           	pop	edi
      52: 64 74 6f                     	je	0xc4 <.symtab+0xc4>
      55: 72 73                        	jb	0xca <.symtab+0xca>
      57: 5f                           	pop	edi
      58: 61                           	popal
      59: 75 78                        	jne	0xd3 <.symtab+0xd3>
      5b: 5f                           	pop	edi
      5c: 66 69 6e 69 5f 61            	imul	bp, word ptr [esi + 105], 24927
      62: 72 72                        	jb	0xd6 <.symtab+0xd6>
      64: 61                           	popal
      65: 79 5f                        	jns	0xc6 <.symtab+0xc6>
      67: 65 6e                        	outsb	dx, byte ptr gs:[esi]
      69: 74 72                        	je	0xdd <.symtab+0xdd>
      6b: 79 00                        	jns	0x6d <.symtab+0x6d>
      6d: 66 72 61                     	jb	0xd1 <.symtab+0xd1>
      70: 6d                           	insd	dword ptr es:[edi], dx
      71: 65 5f                        	pop	edi
      73: 64 75 6d                     	jne	0xe3 <.symtab+0xe3>
      76: 6d                           	insd	dword ptr es:[edi], dx
      77: 79 00                        	jns	0x79 <.symtab+0x79>
      79: 5f                           	pop	edi
      7a: 5f                           	pop	edi
      7b: 66 72 61                     	jb	0xdf <.symtab+0xdf>
      7e: 6d                           	insd	dword ptr es:[edi], dx
      7f: 65 5f                        	pop	edi
      81: 64 75 6d                     	jne	0xf1 <.symtab+0xf1>
      84: 6d                           	insd	dword ptr es:[edi], dx
      85: 79 5f                        	jns	0xe6 <.symtab+0xe6>
      87: 69 6e 69 74 5f 61 72         	imul	ebp, dword ptr [esi + 105], 1918984052
      8e: 72 61                        	jb	0xf1 <.symtab+0xf1>
      90: 79 5f                        	jns	0xf1 <.symtab+0xf1>
      92: 65 6e                        	outsb	dx, byte ptr gs:[esi]
      94: 74 72                        	je	0x108 <.symtab+0x108>
      96: 79 00                        	jns	0x98 <.symtab+0x98>
      98: 66 75 6e                     	jne	0x109 <.symtab+0x109>
      9b: 2e 63 00                     	arpl	word ptr cs:[eax], ax
      9e: 5f                           	pop	edi
      9f: 5f                           	pop	edi
      a0: 46                           	inc	esi
      a1: 52                           	push	edx
      a2: 41                           	inc	ecx
      a3: 4d                           	dec	ebp
      a4: 45                           	inc	ebp
      a5: 5f                           	pop	edi
      a6: 45                           	inc	ebp
      a7: 4e                           	dec	esi
      a8: 44                           	inc	esp
      a9: 5f                           	pop	edi
      aa: 5f                           	pop	edi
      ab: 00 5f 5f                     	add	byte ptr [edi + 95], bl
      ae: 69 6e 69 74 5f 61 72         	imul	ebp, dword ptr [esi + 105], 1918984052
      b5: 72 61                        	jb	0x118 <.symtab+0x118>
      b7: 79 5f                        	jns	0x118 <.symtab+0x118>
      b9: 65 6e                        	outsb	dx, byte ptr gs:[esi]
      bb: 64 00 5f 44                  	add	byte ptr fs:[edi + 68], bl
      bf: 59                           	pop	ecx
      c0: 4e                           	dec	esi
      c1: 41                           	inc	ecx
      c2: 4d                           	dec	ebp
      c3: 49                           	dec	ecx
      c4: 43                           	inc	ebx
      c5: 00 5f 5f                     	add	byte ptr [edi + 95], bl
      c8: 69 6e 69 74 5f 61 72         	imul	ebp, dword ptr [esi + 105], 1918984052
      cf: 72 61                        	jb	0x132 <.symtab+0x132>
      d1: 79 5f                        	jns	0x132 <.symtab+0x132>
      d3: 73 74                        	jae	0x149 <.symtab+0x149>
      d5: 61                           	popal
      d6: 72 74                        	jb	0x14c <.symtab+0x14c>
      d8: 00 5f 5f                     	add	byte ptr [edi + 95], bl
      db: 47                           	inc	edi
      dc: 4e                           	dec	esi
      dd: 55                           	push	ebp
      de: 5f                           	pop	edi
      df: 45                           	inc	ebp
      e0: 48                           	dec	eax
      e1: 5f                           	pop	edi
      e2: 46                           	inc	esi
      e3: 52                           	push	edx
      e4: 41                           	inc	ecx
      e5: 4d                           	dec	ebp
      e6: 45                           	inc	ebp
      e7: 5f                           	pop	edi
      e8: 48                           	dec	eax
      e9: 44                           	inc	esp
      ea: 52                           	push	edx
      eb: 00 5f 47                     	add	byte ptr [edi + 71], bl
      ee: 4c                           	dec	esp
      ef: 4f                           	dec	edi
      f0: 42                           	inc	edx
      f1: 41                           	inc	ecx
      f2: 4c                           	dec	esp
      f3: 5f                           	pop	edi
      f4: 4f                           	dec	edi
      f5: 46                           	inc	esi
      f6: 46                           	inc	esi
      f7: 53                           	push	ebx
      f8: 45                           	inc	ebp
      f9: 54                           	push	esp
      fa: 5f                           	pop	edi
      fb: 54                           	push	esp
      fc: 41                           	inc	ecx
      fd: 42                           	inc	edx
      fe: 4c                           	dec	esp
      ff: 45                           	inc	ebp
     100: 5f                           	pop	edi
     101: 00 5f 5f                     	add	byte ptr [edi + 95], bl
     104: 6c                           	insb	byte ptr es:[edi], dx
     105: 69 62 63 5f 63 73 75         	imul	esp, dword ptr [edx + 99], 1970496351
     10c: 5f                           	pop	edi
     10d: 66 69 6e 69 00 73            	imul	bp, word ptr [esi + 105], 29440
     113: 65 74 62                     	je	0x178 <.symtab+0x178>
     116: 75 66                        	jne	0x17e <.symtab+0x17e>
     118: 40                           	inc	eax
     119: 40                           	inc	eax
     11a: 47                           	inc	edi
     11b: 4c                           	dec	esp
     11c: 49                           	dec	ecx
     11d: 42                           	inc	edx
     11e: 43                           	inc	ebx
     11f: 5f                           	pop	edi
     120: 32 2e                        	xor	ch, byte ptr [esi]
     122: 30 00                        	xor	byte ptr [eax], al
     124: 5f                           	pop	edi
     125: 5f                           	pop	edi
     126: 78 38                        	js	0x160 <.symtab+0x160>
     128: 36 2e 67 65 74 5f            	je	0x18d <.symtab+0x18d>
     12e: 70 63                        	jo	0x193 <.symtab+0x193>
     130: 5f                           	pop	edi
     131: 74 68                        	je	0x19b <.symtab+0x19b>
     133: 75 6e                        	jne	0x1a3 <.symtab+0x1a3>
     135: 6b 2e 62                     	imul	ebp, dword ptr [esi], 98
     138: 78 00                        	js	0x13a <.symtab+0x13a>
     13a: 5f                           	pop	edi
     13b: 65 64 61                     	popal
     13e: 74 61                        	je	0x1a1 <.symtab+0x1a1>
     140: 00 65 78                     	add	byte ptr [ebp + 120], ah
     143: 65 63 75 74                  	arpl	word ptr gs:[ebp + 116], si
     147: 65 00 5f 5f                  	add	byte ptr gs:[edi + 95], bl
     14b: 64 61                        	popal
     14d: 74 61                        	je	0x1b0 <.symtab+0x1b0>
     14f: 5f                           	pop	edi
     150: 73 74                        	jae	0x1c6 <.symtab+0x1c6>
     152: 61                           	popal
     153: 72 74                        	jb	0x1c9 <.symtab+0x1c9>
     155: 00 70 75                     	add	byte ptr [eax + 117], dh
     158: 74 73                        	je	0x1cd <.symtab+0x1cd>
     15a: 40                           	inc	eax
     15b: 40                           	inc	eax
     15c: 47                           	inc	edi
     15d: 4c                           	dec	esp
     15e: 49                           	dec	ecx
     15f: 42                           	inc	edx
     160: 43                           	inc	ebx
     161: 5f                           	pop	edi
     162: 32 2e                        	xor	ch, byte ptr [esi]
     164: 30 00                        	xor	byte ptr [eax], al
     166: 5f                           	pop	edi
     167: 5f                           	pop	edi
     168: 67 6d                        	insd	dword ptr es:[di], dx
     16a: 6f                           	outsd	dx, dword ptr [esi]
     16b: 6e                           	outsb	dx, byte ptr [esi]
     16c: 5f                           	pop	edi
     16d: 73 74                        	jae	0x1e3 <.symtab+0x1e3>
     16f: 61                           	popal
     170: 72 74                        	jb	0x1e6 <.symtab+0x1e6>
     172: 5f                           	pop	edi
     173: 5f                           	pop	edi
     174: 00 65 78                     	add	byte ptr [ebp + 120], ah
     177: 69 74 40 40 47 4c 49 42      	imul	esi, dword ptr [eax + 2*eax + 64], 1112099911
     17f: 43                           	inc	ebx
     180: 5f                           	pop	edi
     181: 32 2e                        	xor	ch, byte ptr [esi]
     183: 30 00                        	xor	byte ptr [eax], al
     185: 5f                           	pop	edi
     186: 5f                           	pop	edi
     187: 64 73 6f                     	jae	0x1f9 <.symtab+0x1f9>
     18a: 5f                           	pop	edi
     18b: 68 61 6e 64 6c               	push	1818521185
     190: 65 00 5f 49                  	add	byte ptr gs:[edi + 73], bl
     194: 4f                           	dec	edi
     195: 5f                           	pop	edi
     196: 73 74                        	jae	0x20c <.symtab+0x20c>
     198: 64 69 6e 5f 75 73 65 64      	imul	ebp, dword ptr fs:[esi + 95], 1684370293
     1a0: 00 5f 5f                     	add	byte ptr [edi + 95], bl
     1a3: 6c                           	insb	byte ptr es:[edi], dx
     1a4: 69 62 63 5f 73 74 61         	imul	esp, dword ptr [edx + 99], 1635021663
     1ab: 72 74                        	jb	0x221 <.symtab+0x221>
     1ad: 5f                           	pop	edi
     1ae: 6d                           	insd	dword ptr es:[edi], dx
     1af: 61                           	popal
     1b0: 69 6e 40 40 47 4c 49         	imul	ebp, dword ptr [esi + 64], 1229735744
     1b7: 42                           	inc	edx
     1b8: 43                           	inc	ebx
     1b9: 5f                           	pop	edi
     1ba: 32 2e                        	xor	ch, byte ptr [esi]
     1bc: 30 00                        	xor	byte ptr [eax], al
     1be: 5f                           	pop	edi
     1bf: 5f                           	pop	edi
     1c0: 6c                           	insb	byte ptr es:[edi], dx
     1c1: 69 62 63 5f 63 73 75         	imul	esp, dword ptr [edx + 99], 1970496351
     1c8: 5f                           	pop	edi
     1c9: 69 6e 69 74 00 73 74         	imul	ebp, dword ptr [esi + 105], 1953693812
     1d0: 64 69 6e 40 40 47 4c 49      	imul	ebp, dword ptr fs:[esi + 64], 1229735744
     1d8: 42                           	inc	edx
     1d9: 43                           	inc	ebx
     1da: 5f                           	pop	edi
     1db: 32 2e                        	xor	ch, byte ptr [esi]
     1dd: 30 00                        	xor	byte ptr [eax], al
     1df: 5f                           	pop	edi
     1e0: 64 6c                        	insb	byte ptr es:[edi], dx
     1e2: 5f                           	pop	edi
     1e3: 72 65                        	jb	0x24a <.symtab+0x24a>
     1e5: 6c                           	insb	byte ptr es:[edi], dx
     1e6: 6f                           	outsd	dx, dword ptr [esi]
     1e7: 63 61 74                     	arpl	word ptr [ecx + 116], sp
     1ea: 65 5f                        	pop	edi
     1ec: 73 74                        	jae	0x262 <.symtab+0x262>
     1ee: 61                           	popal
     1ef: 74 69                        	je	0x25a <.symtab+0x25a>
     1f1: 63 5f 70                     	arpl	word ptr [edi + 112], bx
     1f4: 69 65 00 5f 66 70 5f         	imul	esp, dword ptr [ebp], 1601201759
     1fb: 68 77 00 66 67               	push	1734738039
     200: 65 74 63                     	je	0x266 <.symtab+0x266>
     203: 40                           	inc	eax
     204: 40                           	inc	eax
     205: 47                           	inc	edi
     206: 4c                           	dec	esp
     207: 49                           	dec	ecx
     208: 42                           	inc	edx
     209: 43                           	inc	ebx
     20a: 5f                           	pop	edi
     20b: 32 2e                        	xor	ch, byte ptr [esi]
     20d: 30 00                        	xor	byte ptr [eax], al
     20f: 73 74                        	jae	0x285 <.symtab+0x285>
     211: 64 6f                        	outsd	dx, dword ptr fs:[esi]
     213: 75 74                        	jne	0x289 <.symtab+0x289>
     215: 40                           	inc	eax
     216: 40                           	inc	eax
     217: 47                           	inc	edi
     218: 4c                           	dec	esp
     219: 49                           	dec	ecx
     21a: 42                           	inc	edx
     21b: 43                           	inc	ebx
     21c: 5f                           	pop	edi
     21d: 32 2e                        	xor	ch, byte ptr [esi]
     21f: 30 00                        	xor	byte ptr [eax], al
     221: 5f                           	pop	edi
     222: 5f                           	pop	edi
     223: 62 73 73                     	bound	esi, dword ptr [ebx + 115]
     226: 5f                           	pop	edi
     227: 73 74                        	jae	0x29d <.symtab+0x29d>
     229: 61                           	popal
     22a: 72 74                        	jb	0x2a0 <.symtab+0x2a0>
     22c: 00 6d 61                     	add	byte ptr [ebp + 97], ch
     22f: 69 6e 00 5f 5f 78 38         	imul	ebp, dword ptr [esi], 947412831
     236: 36 2e 67 65 74 5f            	je	0x29b <.symtab+0x29b>
     23c: 70 63                        	jo	0x2a1 <.symtab+0x2a1>
     23e: 5f                           	pop	edi
     23f: 74 68                        	je	0x2a9 <.symtab+0x2a9>
     241: 75 6e                        	jne	0x2b1 <.symtab+0x2b1>
     243: 6b 2e 61                     	imul	ebp, dword ptr [esi], 97
     246: 78 00                        	js	0x248 <.symtab+0x248>
     248: 5f                           	pop	edi
     249: 5f                           	pop	edi
     24a: 54                           	push	esp
     24b: 4d                           	dec	ebp
     24c: 43                           	inc	ebx
     24d: 5f                           	pop	edi
     24e: 45                           	inc	ebp
     24f: 4e                           	dec	esi
     250: 44                           	inc	esp
     251: 5f                           	pop	edi
     252: 5f                           	pop	edi
     253: 00                           	<unknown>

Disassembly of section .shstrtab:

00000000 <.shstrtab>:
       0: 00 2e                        	add	byte ptr [esi], ch
       2: 73 79                        	jae	0x7d <.symtab+0x7d>
       4: 6d                           	insd	dword ptr es:[edi], dx
       5: 74 61                        	je	0x68 <.symtab+0x68>
       7: 62 00                        	bound	eax, dword ptr [eax]
       9: 2e 73 74                     	jae	0x80 <.symtab+0x80>
       c: 72 74                        	jb	0x82 <.symtab+0x82>
       e: 61                           	popal
       f: 62 00                        	bound	eax, dword ptr [eax]
      11: 2e 73 68                     	jae	0x7c <.symtab+0x7c>
      14: 73 74                        	jae	0x8a <.symtab+0x8a>
      16: 72 74                        	jb	0x8c <.symtab+0x8c>
      18: 61                           	popal
      19: 62 00                        	bound	eax, dword ptr [eax]
      1b: 2e 69 6e 74 65 72 70 00      	imul	ebp, dword ptr cs:[esi + 116], 7369317
      23: 2e 6e                        	outsb	dx, byte ptr cs:[esi]
      25: 6f                           	outsd	dx, dword ptr [esi]
      26: 74 65                        	je	0x8d <.symtab+0x8d>
      28: 2e 41                        	inc	ecx
      2a: 42                           	inc	edx
      2b: 49                           	dec	ecx
      2c: 2d 74 61 67 00               	sub	eax, 6775156
      31: 2e 6e                        	outsb	dx, byte ptr cs:[esi]
      33: 6f                           	outsd	dx, dword ptr [esi]
      34: 74 65                        	je	0x9b <.symtab+0x9b>
      36: 2e 67 6e                     	outsb	dx, byte ptr cs:[si]
      39: 75 2e                        	jne	0x69 <.symtab+0x69>
      3b: 62 75 69                     	bound	esi, dword ptr [ebp + 105]
      3e: 6c                           	insb	byte ptr es:[edi], dx
      3f: 64 2d 69 64 00 2e            	sub	eax, 771777641
      45: 67 6e                        	outsb	dx, byte ptr [si]
      47: 75 2e                        	jne	0x77 <.symtab+0x77>
      49: 68 61 73 68 00               	push	6845281
      4e: 2e 64 79 6e                  	jns	0xc0 <.symtab+0xc0>
      52: 73 79                        	jae	0xcd <.symtab+0xcd>
      54: 6d                           	insd	dword ptr es:[edi], dx
      55: 00 2e                        	add	byte ptr [esi], ch
      57: 64 79 6e                     	jns	0xc8 <.symtab+0xc8>
      5a: 73 74                        	jae	0xd0 <.symtab+0xd0>
      5c: 72 00                        	jb	0x5e <.symtab+0x5e>
      5e: 2e 67 6e                     	outsb	dx, byte ptr cs:[si]
      61: 75 2e                        	jne	0x91 <.symtab+0x91>
      63: 76 65                        	jbe	0xca <.symtab+0xca>
      65: 72 73                        	jb	0xda <.symtab+0xda>
      67: 69 6f 6e 00 2e 67 6e         	imul	ebp, dword ptr [edi + 110], 1852255744
      6e: 75 2e                        	jne	0x9e <.symtab+0x9e>
      70: 76 65                        	jbe	0xd7 <.symtab+0xd7>
      72: 72 73                        	jb	0xe7 <.symtab+0xe7>
      74: 69 6f 6e 5f 72 00 2e         	imul	ebp, dword ptr [edi + 110], 771781215
      7b: 72 65                        	jb	0xe2 <.symtab+0xe2>
      7d: 6c                           	insb	byte ptr es:[edi], dx
      7e: 2e 64 79 6e                  	jns	0xf0 <.symtab+0xf0>
      82: 00 2e                        	add	byte ptr [esi], ch
      84: 72 65                        	jb	0xeb <.symtab+0xeb>
      86: 6c                           	insb	byte ptr es:[edi], dx
      87: 2e 70 6c                     	jo	0xf6 <.symtab+0xf6>
      8a: 74 00                        	je	0x8c <.symtab+0x8c>
      8c: 2e 69 6e 69 74 00 2e 70      	imul	ebp, dword ptr cs:[esi + 105], 1882062964
      94: 6c                           	insb	byte ptr es:[edi], dx
      95: 74 2e                        	je	0xc5 <.symtab+0xc5>
      97: 67 6f                        	outsd	dx, dword ptr [si]
      99: 74 00                        	je	0x9b <.symtab+0x9b>
      9b: 2e 74 65                     	je	0x103 <.symtab+0x103>
      9e: 78 74                        	js	0x114 <.symtab+0x114>
      a0: 00 2e                        	add	byte ptr [esi], ch
      a2: 66 69 6e 69 00 2e            	imul	bp, word ptr [esi + 105], 11776
      a8: 72 6f                        	jb	0x119 <.symtab+0x119>
      aa: 64 61                        	popal
      ac: 74 61                        	je	0x10f <.symtab+0x10f>
      ae: 00 2e                        	add	byte ptr [esi], ch
      b0: 65 68 5f 66 72 61            	push	1634887263
      b6: 6d                           	insd	dword ptr es:[edi], dx
      b7: 65 5f                        	pop	edi
      b9: 68 64 72 00 2e               	push	771781220
      be: 65 68 5f 66 72 61            	push	1634887263
      c4: 6d                           	insd	dword ptr es:[edi], dx
      c5: 65 00 2e                     	add	byte ptr gs:[esi], ch
      c8: 69 6e 69 74 5f 61 72         	imul	ebp, dword ptr [esi + 105], 1918984052
      cf: 72 61                        	jb	0x132 <.symtab+0x132>
      d1: 79 00                        	jns	0xd3 <.symtab+0xd3>
      d3: 2e 66 69 6e 69 5f 61         	imul	bp, word ptr cs:[esi + 105], 24927
      da: 72 72                        	jb	0x14e <.symtab+0x14e>
      dc: 61                           	popal
      dd: 79 00                        	jns	0xdf <.symtab+0xdf>
      df: 2e 64 79 6e                  	jns	0x151 <.symtab+0x151>
      e3: 61                           	popal
      e4: 6d                           	insd	dword ptr es:[edi], dx
      e5: 69 63 00 2e 67 6f 74         	imul	esp, dword ptr [ebx], 1953457966
      ec: 2e 70 6c                     	jo	0x15b <.symtab+0x15b>
      ef: 74 00                        	je	0xf1 <.symtab+0xf1>
      f1: 2e 64 61                     	popal
      f4: 74 61                        	je	0x157 <.symtab+0x157>
      f6: 00 2e                        	add	byte ptr [esi], ch
      f8: 62 73 73                     	bound	esi, dword ptr [ebx + 115]
      fb: 00 2e                        	add	byte ptr [esi], ch
      fd: 63 6f 6d                     	arpl	word ptr [edi + 109], bp
     100: 6d                           	insd	dword ptr es:[edi], dx
     101: 65 6e                        	outsb	dx, byte ptr gs:[esi]
     103: 74 00                        	je	0x105 <.symtab+0x105>
